******************************************************************************
                  TI ARM Linker PC v18.12.1                    
******************************************************************************
>> Linked Sun Jul 14 17:39:36 2019

OUTPUT FILE NAME:   <simple_np_cc2650lp_stack.out>
ENTRY POINT SYMBOL: "startup_entry"  address: 0000d001


MEMORY CONFIGURATION

         name            origin    length      used     unused   attr    fill
----------------------  --------  ---------  --------  --------  ----  --------
  FLASH                 00000000   0001f000  00011158  0000dea8  R  X
  SRAM                  20000000   000048e7  00000780  00004167  RW X


SEGMENT ALLOCATION MAP

run origin  load origin   length   init length attrs members
----------  ----------- ---------- ----------- ----- -------
0000d000    0000d000    00010158   00010158    r-x
  0000d000    0000d000    000004f4   000004f4    r-x EntrySection
  0000d4f4    0000d4f4    0000eef4   0000eef4    r-x .text
  0001c3e8    0001c3e8    000006f8   000006f8    r-- .const
  0001cae0    0001cae0    0000006e   0000006e    r-- .rodata
  0001cb50    0001cb50    00000608   00000608    r-- .cinit
0001e000    0001e000    00001000   00001000    r--
  0001e000    0001e000    00001000   00001000    r-- .TI.bound:NV_FLASH
20004160    20004160    00000780   00000000    rw-
  20004160    20004160    000001a8   00000000    rw- .bss
  20004308    20004308    000005d8   00000000    rw- .data


SECTION ALLOCATION MAP

 output                                  attributes/
section   page    origin      length       input sections
--------  ----  ----------  ----------   ----------------
EntrySection 
*          0    0000d000    000004f4     
                  0000d000    00000404     icall_startup.obj (EntrySection)
                  0000d404    00000008     rtsv7M3_T_le_eabi.lib : autoinit.c.obj (.tramp.__TI_auto_init_nobinit_nopinit.1)
                  0000d40c    00000008     host_pxxx_sc_del.a : l2cap_if.o (.tramp.L2CAP_SetUserConfig.1)
                  0000d414    00000008     <whole-program> (.tramp.ICall_enrollService$21.1)
                  0000d41c    00000008     <whole-program> (.tramp.halAssertHandlerExt.1)
                  0000d424    00000008     <whole-program> (.tramp.HalFlashRead.1)
                  0000d42c    00000008     <whole-program> (.tramp.findOffset$13.1)
                  0000d434    00000008     <whole-program> (.tramp.compactPage$13.1)
                  0000d43c    00000008     <whole-program> (.tramp.erasePage$13.1)
                  0000d444    00000008     <whole-program> (.tramp.setActivePage$13.1)
                  0000d44c    00000008     <whole-program> (.tramp.ICall_getTicks$14.1)
                  0000d454    00000008     <whole-program> (.tramp.osal_mem_alloc.1)
                  0000d45c    00000008     <whole-program> (.tramp.osal_memset.1)
                  0000d464    00000008     cc2640_ctrl_pxxx_sc.a : ll_patch.o (.tramp.LL_Init.1)
                  0000d46c    00000008     cc26xx_hci_tl_none.a : hci_tl.o (.tramp.HCI_Init.1)
                  0000d474    00000008     host_pxxx_sc_del.a : l2cap_task.o (.tramp.L2CAP_Init.1)
                  0000d47c    00000008                        : gap_task.o (.tramp.GAP_Init.1)
                  0000d484    00000008                        : sm_task.o (.tramp.SM_Init.1)
                  0000d48c    00000008                        : gatt_task.o (.tramp.GATT_Init.1)
                  0000d494    00000008                        : gattservapp.o (.tramp.GATTServApp_Init.1)
                  0000d49c    00000008                        : gap_task.o (.tramp.GAP_RegisterBondMgrCBs.1)
                  0000d4a4    00000008     <whole-program> (.tramp.gapBondMgrReadBonds$16.1)
                  0000d4ac    00000008     <whole-program> (.tramp.osal_snv_read.1)
                  0000d4b4    00000008     <whole-program> (.tramp.ICall_setTimer$7.1)
                  0000d4bc    00000008     <whole-program> (.tramp.ICall_abort$7.1)
                  0000d4c4    00000008     <whole-program> (.tramp.osal_next_timeout.1)
                  0000d4cc    00000008     <whole-program> (.tramp.osal_timer_refTimeUpdate.1)
                  0000d4d4    00000008     <whole-program> (.tramp.osal_alien2proxy$7.1)
                  0000d4dc    00000008     <whole-program> (.tramp.osal_msg_send.1)
                  0000d4e4    00000008     <whole-program> (.tramp.ICall_setTimerMSecs$7.1)
                  0000d4ec    00000008     <whole-program> (.tramp.ICall_signal$7.1)

.text      0    0000d4f4    0000eef4     
                  0000d4f4    000001ec     host_pxxx_sc_del.a : att_server.o (.text)
                  0000d6e0    000005cc                        : att_util.o (.text)
                  0000dcac    00000348                        : gap_configmgr.o (.text)
                  0000dff4    000000b0                        : gap_devmgr.o (.text)
                  0000e0a4    000009d0                        : gap_linkmgr.o (.text)
                  0000ea74    00000624                        : gap_peridevmgr.o (.text)
                  0000f098    00000110                        : gap_perilinkmgr.o (.text)
                  0000f1a8    000002ec                        : gap_task.o (.text)
                  0000f494    0000032c                        : gapgattserver.o (.text)
                  0000f7c0    00000b16                        : gatt_server.o (.text)
                  000102d6    00000002     rtsv7M3_T_le_eabi.lib : div0.asm.obj (.text)
                  000102d8    000002f6     host_pxxx_sc_del.a : gatt_task.o (.text)
                  000105ce    00000002     --HOLE-- [fill = 0]
                  000105d0    0000013e                        : gatt_uuid.o (.text)
                  0001070e    00000002     --HOLE-- [fill = 0]
                  00010710    000010f8                        : gattservapp.o (.text)
                  00011808    0000018e                        : l2cap_if.o (.text)
                  00011996    00000002     --HOLE-- [fill = 0]
                  00011998    000002b0                        : l2cap_task.o (.text)
                  00011c48    0000068c                        : l2cap_util.o (.text)
                  000122d4    00000308                        : linkdb.o (.text)
                  000125dc    00000a6c                        : sm_mgr.o (.text)
                  00013048    00000cc8                        : sm_pairing.o (.text)
                  00013d10    0000084c                        : sm_rsppairing.o (.text)
                  0001455c    000002f4                        : sm_task.o (.text)
                  00014850    0000042e                        : smp.o (.text)
                  00014c7e    00000002     --HOLE-- [fill = 0]
                  00014c80    000004fc     cc2640_ctrl_pxxx_sc.a : ble_patch.o (.text)
                  0001517c    000000a8                           : hci_data_patch.o (.text)
                  00015224    00000708                           : hci_event_patch.o (.text)
                  0001592c    00000338                           : hci_patch.o (.text)
                  00015c64    00000428                           : ll_adv_end_causes_patch.o (.text)
                  0001608c    00000c08                           : ll_common_patch.o (.text)
                  00016c94    0000014c                           : ll_enc_patch.o (.text)
                  00016de0    000017c8                           : ll_patch.o (.text)
                  000185a8    00000010                           : ll_rat_patch.o (.text)
                  000185b8    000001a8                           : ll_scheduler_patch.o (.text)
                  00018760    000006fe                           : ll_slave_end_causes_patch.o (.text)
                  00018e5e    00000002     --HOLE-- [fill = 0]
                  00018e60    00000046                           : ll_sleep.o (.text)
                  00018ea6    000000ae                           : ll_wl_patch.o (.text)
                  00018f54    000003c8                           : ll_isr.o (.text)
                  0001931c    000000a8     cc26xx_hci_tl_none.a : hci_tl.o (.text)
                  000193c4    00000096     rtsv7M3_T_le_eabi.lib : ull_div_t2.asm.obj (.text)
                  0001945a    00000018                           : ll_mul_t2.asm.obj (.text)
                  00019472    0000009c                           : memcpy_t2.asm.obj (.text)
                  0001950e    0000007a                           : memset_t2.asm.obj (.text)
                  00019588    00000044                           : autoinit.c.obj (.text:__TI_auto_init_nobinit_nopinit:__TI_auto_init_nobinit_nopinit)
                  000195cc    0000000c     driverlib.lib : cpu.obj (.text:NOROM_CPUcpsie)
                  000195d8    0000000c                   : cpu.obj (.text:NOROM_CPUcpsid)
                  000195e4    000002f4     osal_timers.obj (.text)
                  000198d8    00000034     driverlib.lib : rom_crypto.obj (.text:ECC_initialize)
                  0001990c    00000036     rom_jt.obj (.text)
                  00019942    00000002     --HOLE-- [fill = 0]
                  00019944    00000078     hal_trng_wrapper.obj (.text)
                  000199bc    00000020     hal_assert.obj (.text)
                  000199dc    00000068     driverlib.lib : interrupt.obj (.text:NOROM_IntDisable)
                  00019a44    0000005c                   : interrupt.obj (.text:NOROM_IntEnable)
                  00019aa0    00000014     onboard.obj (.text)
                  00019ab4    000000c8     osal_bufmgr.obj (.text)
                  00019b7c    000004e0     osal.obj (.text)
                  0001a05c    00000058     hal_flash_wrapper.obj (.text)
                  0001a0b4    00000190     osal_cbtimer.obj (.text)
                  0001a244    000003cc     osal_snv_wrapper.obj (.text)
                  0001a610    00000b18     gapbondmgr.obj (.text)
                  0001b128    00000014     driverlib.lib : vims.obj (.text:NOROM_VIMSModeGet)
                  0001b13c    0000001c                   : flash.obj (.text:NOROM_FlashProgram)
                  0001b158    00000024     rtsv7M3_T_le_eabi.lib : memcmp.c.obj (.text:memcmp)
                  0001b17c    0000001c     driverlib.lib : flash.obj (.text:NOROM_FlashSectorErase)
                  0001b198    00000c94     ble_dispatch.obj (.text)
                  0001be2c    00000090     osal_pwrmgr.obj (.text)
                  0001bebc    0000000c     driverlib.lib : rom_crypto.obj (.text:ECC_generateKey)
                  0001bec8    00000014                   : rom_crypto.obj (.text:ECC_ECDH_computeSharedSecret)
                  0001bedc    00000044     osal_memory_icall.obj (.text)
                  0001bf20    00000038     osal_icall_ble.obj (.text)
                  0001bf58    00000014     rtsv7M3_T_le_eabi.lib : strlen.c.obj (.text:strlen)
                  0001bf6c    00000012                           : copy_zero_init.c.obj (.text:decompress:ZI:__TI_zero_init_nomemset:__TI_zero_init_nomemset)
                  0001bf7e    0000000e                           : copy_decompress_none.c.obj (.text:decompress:none:__TI_decompress_none)
                  0001bf8c    00000068                           : copy_decompress_lzss.c.obj (.text:decompress:lzss:__TI_decompress_lzss)
                  0001bff4    00000004     sm_ecc.obj (.text)
                  0001bff8    00000060     gattservapp_util.obj (.text)
                  0001c058    00000008     ble_rom_patch.symbols (.tramp.HCI_ReadBDADDRCmd.1)
                  0001c060    00000008     ble_rom_patch.symbols (.tramp.HCI_LE_SetRandomAddressCmd.1)
                  0001c068    00000008     ble_rom_patch.symbols (.tramp.LL_ReadBDADDR.1)
                  0001c070    00000008     ble_rom_patch.symbols (.tramp.HCI_DisconnectCmd.1)
                  0001c078    00000008     ble_rom_patch.symbols (.tramp.HCI_LE_SetAdvDataCmd.1)
                  0001c080    00000008     ble_rom_patch.symbols (.tramp.HCI_LE_SetScanRspDataCmd.1)
                  0001c088    00000008     ble_rom_patch.symbols (.tramp.HCI_LE_SetAdvEnableCmd.1)
                  0001c090    00000008     ble_rom_patch.symbols (.tramp.HCI_LE_SetAdvParamCmd.1)
                  0001c098    00000008     ble_rom_patch.symbols (.tramp.HCI_SetControllerToHostFlowCtrlCmd.1)
                  0001c0a0    00000008     ble_rom_patch.symbols (.tramp.HCI_HostBufferSizeCmd.1)
                  0001c0a8    00000008     ble_rom_patch.symbols (.tramp.HCI_HostNumCompletedPktCmd.1)
                  0001c0b0    00000008     ble_rom_patch.symbols (.tramp.HCI_SendDataPkt.1)
                  0001c0b8    00000008     ble_rom_patch.symbols (.tramp.HCI_bm_alloc.1)
                  0001c0c0    00000008     ble_rom_patch.symbols (.tramp.LL_Encrypt.1)
                  0001c0c8    00000008     ble_rom_patch.symbols (.tramp.HCI_LE_LtkReqReplyCmd.1)
                  0001c0d0    00000008     ble_rom_patch.symbols (.tramp.HCI_LE_LtkReqNegReplyCmd.1)
                  0001c0d8    00000008     ble_rom_patch.symbols (.tramp.llMemCopySrc.1)
                  0001c0e0    00000008     ble_rom_patch.symbols (.tramp.LL_ENC_ReverseBytes.1)
                  0001c0e8    00000008     ble_rom_patch.symbols (.tramp.LL_ENC_GenDeviceSKD.1)
                  0001c0f0    00000008     ble_rom_patch.symbols (.tramp.LL_ENC_GenDeviceIV.1)
                  0001c0f8    00000008     ble_rom_patch.symbols (.tramp.llEnqueueCtrlPkt.1)
                  0001c100    00000008     ble_rom_patch.symbols (.tramp.llSetupUnknownRsp.1)
                  0001c108    00000008     ble_rom_patch.symbols (.tramp.LL_RX_bm_alloc.1)
                  0001c110    00000008     ble_rom_patch.symbols (.tramp.llPatchCM0.1)
                  0001c118    00000008     ble_rom_patch.symbols (.tramp.RFHAL_AllocRatChan.1)
                  0001c120    00000008     ble_rom_patch.symbols (.tramp.RFHAL_RegisterRatChanCallback.1)
                  0001c128    00000008     ble_rom_patch.symbols (.tramp.LL_CtrlToHostFlowControl.1)
                  0001c130    00000008     ble_rom_patch.symbols (.tramp.HCI_SendCommandCompleteEvent.1)
                  0001c138    00000008     ble_rom_patch.symbols (.tramp.HCI_CommandCompleteEvent.1)
                  0001c140    00000008     ble_rom_patch.symbols (.tramp.HCI_CommandStatusEvent.1)
                  0001c148    00000008     ble_rom_patch.symbols (.tramp.LL_EXT_ResetSystem.1)
                  0001c150    00000008     ble_rom_patch.symbols (.tramp.LL_ReadLocalVersionInfo.1)
                  0001c158    00000008     ble_rom_patch.symbols (.tramp.llFreeTask.1)
                  0001c160    00000008     ble_rom_patch.symbols (.tramp.LL_ENC_GeneratePseudoRandNum.1)
                  0001c168    00000008     ble_rom_patch.symbols (.tramp.llScheduler.1)
                  0001c170    00000008     ble_rom_patch.symbols (.tramp.llConvertLstoToEvent.1)
                  0001c178    00000008     ble_rom_patch.symbols (.tramp.llConvertCtrlProcTimeoutToEvent.1)
                  0001c180    00000008     ble_rom_patch.symbols (.tramp.llCalcScaFactor.1)
                  0001c188    00000008     ble_rom_patch.symbols (.tramp.llConnTerminate.1)
                  0001c190    00000008     ble_rom_patch.symbols (.tramp.RFHAL_InitDataQueue.1)
                  0001c198    00000008     ble_rom_patch.symbols (.tramp.llEventDelta.1)
                  0001c1a0    00000008     ble_rom_patch.symbols (.tramp.LL_TX_bm_alloc.1)
                  0001c1a8    00000008     ble_rom_patch.symbols (.tramp.RFHAL_FreeNextTxDataEntry.1)
                  0001c1b0    00000008     ble_rom_patch.symbols (.tramp.RFHAL_GetNextDataEntry.1)
                  0001c1b8    00000008     ble_rom_patch.symbols (.tramp.RFHAL_GetTempDataEntry.1)
                  0001c1c0    00000008     ble_rom_patch.symbols (.tramp.llReleaseConnId.1)
                  0001c1c8    00000008     ble_rom_patch.symbols (.tramp.llTimeCompare.1)
                  0001c1d0    00000008     ble_rom_patch.symbols (.tramp.llGetCurrentTask.1)
                  0001c1d8    00000008     ble_rom_patch.symbols (.tramp.llTimeDelta.1)
                  0001c1e0    00000008     ble_rom_patch.symbols (.tramp.llSetupRejectInd.1)
                  0001c1e8    00000008     ble_rom_patch.symbols (.tramp.LL_ENC_Init.1)
                  0001c1f0    00000008     ble_rom_patch.symbols (.tramp.LL_ENC_LoadKey.1)
                  0001c1f8    00000008     ble_rom_patch.symbols (.tramp.LL_ENC_GenerateNonce.1)
                  0001c200    00000008     ble_rom_patch.symbols (.tramp.LL_ENC_EncryptMsg.1)
                  0001c208    00000008     ble_rom_patch.symbols (.tramp.LL_ENC_DecryptMsg.1)
                  0001c210    00000008     ble_rom_patch.symbols (.tramp.LL_ENC_GenerateTrueRandNum.1)
                  0001c218    00000008     ble_rom_patch.symbols (.tramp.WL_Init.1)
                  0001c220    00000008     ble_rom_patch.symbols (.tramp.LL_ClearWhiteList.1)
                  0001c228    00000008     ble_rom_patch.symbols (.tramp.llReleaseAllConnId.1)
                  0001c230    00000008     ble_rom_patch.symbols (.tramp.LL_ConnActive.1)
                  0001c238    00000008     ble_rom_patch.symbols (.tramp.HCI_DataBufferOverflowEvent.1)
                  0001c240    00000008     ble_rom_patch.symbols (.tramp.LL_DirectTestEndDoneCback.1)
                  0001c248    00000008     ble_rom_patch.symbols (.tramp.llGetActiveTasks.1)
                  0001c250    00000008     ble_rom_patch.symbols (.tramp.llSetupAdv.1)
                  0001c258    00000008     ble_rom_patch.symbols (.tramp.llGetNumTasks.1)
                  0001c260    00000008     ble_rom_patch.symbols (.tramp.llCheckForLstoDuringSL.1)
                  0001c268    00000008     ble_rom_patch.symbols (.tramp.llEventInRange.1)
                  0001c270    00000008     ble_rom_patch.symbols (.tramp.LL_EncLtkReqCback.1)
                  0001c278    00000008     ble_rom_patch.symbols (.tramp.llSetupEncRsp.1)
                  0001c280    00000008     ble_rom_patch.symbols (.tramp.LL_ENC_AES128_Encrypt.1)
                  0001c288    00000008     ble_rom_patch.symbols (.tramp.LL_EncKeyRefreshCback.1)
                  0001c290    00000008     ble_rom_patch.symbols (.tramp.LL_EncChangeCback.1)
                  0001c298    00000008     ble_rom_patch.symbols (.tramp.llSetupStartEncRsp.1)
                  0001c2a0    00000008     ble_rom_patch.symbols (.tramp.llSetupPauseEncRsp.1)
                  0001c2a8    00000008     ble_rom_patch.symbols (.tramp.LL_ReadRemoteVersionInfoCback.1)
                  0001c2b0    00000008     ble_rom_patch.symbols (.tramp.llSetupVersionIndReq.1)
                  0001c2b8    00000008     ble_rom_patch.symbols (.tramp.llMoveTempTxDataEntries.1)
                  0001c2c0    00000008     ble_rom_patch.symbols (.tramp.WL_ClearEntry.1)
                  0001c2c8    00000008     ble_rom_patch.symbols (.tramp.RFHAL_NextDataEntryDone.1)
                  0001c2d0    00000008     ble_rom_patch.symbols (.tramp.LL_PseudoRand.1)
                  0001c2d8    00000008     ble_rom_patch.symbols (.tramp.HCI_LE_ClearWhiteListCmd.1)
                  0001c2e0    00000008     ble_rom_patch.symbols (.tramp.HCI_LE_AddWhiteListCmd.1)
                  0001c2e8    00000008     ble_rom_patch.symbols (.tramp.HCI_EXT_NumComplPktsLimitCmd.1)
                  0001c2f0    00000008     ble_rom_patch.symbols (.tramp.HCI_EXT_BuildRevisionCmd.1)
                  0001c2f8    00000008     ble_rom_patch.symbols (.tramp.HCI_EXT_SetSlaveLatencyOverrideCmd.1)
                  0001c300    00000008     ble_rom_patch.symbols (.tramp.HCI_EXT_AdvEventNoticeCmd.1)
                  0001c308    00000008     ble_rom_patch.symbols (.tramp.HCI_EXT_PERbyChanCmd.1)
                  0001c310    00000008     ble_rom_patch.symbols (.tramp.HCI_EXT_PacketErrorRateCmd.1)
                  0001c318    00000008     ble_rom_patch.symbols (.tramp.HCI_EXT_DisconnectImmedCmd.1)
                  0001c320    00000008     ble_rom_patch.symbols (.tramp.HCI_EXT_SetMaxDtmTxPowerCmd.1)
                  0001c328    00000008     ble_rom_patch.symbols (.tramp.HCI_EXT_EnablePTMCmd.1)
                  0001c330    00000008     ble_rom_patch.symbols (.tramp.HCI_EXT_SetSCACmd.1)
                  0001c338    00000008     ble_rom_patch.symbols (.tramp.HCI_EXT_SetBDADDRCmd.1)
                  0001c340    00000008     ble_rom_patch.symbols (.tramp.HCI_EXT_EndModemTestCmd.1)
                  0001c348    00000008     ble_rom_patch.symbols (.tramp.HCI_EXT_ModemTestRxCmd.1)
                  0001c350    00000008     ble_rom_patch.symbols (.tramp.HCI_EXT_ModemHopTestTxCmd.1)
                  0001c358    00000008     ble_rom_patch.symbols (.tramp.HCI_EXT_ModemTestTxCmd.1)
                  0001c360    00000008     ble_rom_patch.symbols (.tramp.HCI_EXT_SetFastTxResponseTimeCmd.1)
                  0001c368    00000008     ble_rom_patch.symbols (.tramp.HCI_EXT_SetLocalSupportedFeaturesCmd.1)
                  0001c370    00000008     ble_rom_patch.symbols (.tramp.HCI_EXT_DecryptCmd.1)
                  0001c378    00000008     ble_rom_patch.symbols (.tramp.HCI_EXT_OnePktPerEvtCmd.1)
                  0001c380    00000008     ble_rom_patch.symbols (.tramp.HCI_EXT_SetTxPowerCmd.1)
                  0001c388    00000008     ble_rom_patch.symbols (.tramp.HCI_LE_TestEndCmd.1)
                  0001c390    00000008     ble_rom_patch.symbols (.tramp.HCI_LE_ReadSupportedStatesCmd.1)
                  0001c398    00000008     ble_rom_patch.symbols (.tramp.HCI_LE_EncryptCmd.1)
                  0001c3a0    00000008     ble_rom_patch.symbols (.tramp.HCI_LE_ReadChannelMapCmd.1)
                  0001c3a8    00000008     ble_rom_patch.symbols (.tramp.HCI_LE_RemoveWhiteListCmd.1)
                  0001c3b0    00000008     ble_rom_patch.symbols (.tramp.HCI_LE_ReadWhiteListSizeCmd.1)
                  0001c3b8    00000008     ble_rom_patch.symbols (.tramp.HCI_LE_ReadAdvChanTxPowerCmd.1)
                  0001c3c0    00000008     ble_rom_patch.symbols (.tramp.HCI_LE_ReadLocalSupportedFeaturesCmd.1)
                  0001c3c8    00000008     ble_rom_patch.symbols (.tramp.HCI_ReadLocalSupportedFeaturesCmd.1)
                  0001c3d0    00000008     ble_rom_patch.symbols (.tramp.HCI_ReadTransmitPowerLevelCmd.1)
                  0001c3d8    00000008     ble_rom_patch.symbols (.tramp.HCI_SetEventMaskCmd.1)
                  0001c3e0    00000008     ble_rom_patch.symbols (.tramp.HCI_ReadRemoteVersionInfoCmd.1)

.const     0    0001c3e8    000006f8     
                  0001c3e8    00000028     osal_icall_ble.obj (.const:tasksArr)
                  0001c410    000006d0     rom_jt.obj (.const:$O12$$)

.constdata 
*          0    0001cae0    00000000     UNINITIALIZED

.rodata    0    0001cae0    0000006e     
                  0001cae0    00000008     host_pxxx_sc_del.a : gapgattserver.o (.rodata)
                  0001cae8    00000008                        : gattservapp.o (.rodata)
                  0001caf0    0000005c     cc2640_ctrl_pxxx_sc.a : ll_config.o (.rodata)
                  0001cb4c    00000002                           : ll_patch.o (.rodata)

.cinit     0    0001cb50    00000608     
                  0001cb50    0000000c     (__TI_handler_table)
                  0001cb5c    00000010     (__TI_cinit_table)
                  0001cb6c    00000004     --HOLE-- [fill = 0]
                  0001cb70    000005e0     (.cinit..data.load) [load image]
                  0001d150    00000008     (.cinit..bss.load) [load image, compression = zero_init]

.pinit     0    0001d158    00000000     UNINITIALIZED

.init_array 
*          0    0001d158    00000000     UNINITIALIZED

.emb_text 
*          0    0001d158    00000000     UNINITIALIZED

.bss       0    20004160    000001a8     UNINITIALIZED
                  20004160    00000004     host_pxxx_sc_del.a : att_server.o (.bss)
                  20004164    00000004                        : gap_devmgr.o (.bss)
                  20004168    00000004                        : gap_devmgr.o (.bss)
                  2000416c    00000001                        : gap_devmgr.o (.bss)
                  2000416d    00000002                        : gatt_task.o (.bss)
                  2000416f    00000001                        : l2cap_if.o (.bss)
                  20004170    00000004                        : gap_linkmgr.o (.bss)
                  20004174    00000004                        : gap_task.o (.bss)
                  20004178    00000004                        : gapgattserver.o (.bss)
                  2000417c    00000004                        : gatt_server.o (.bss)
                  20004180    00000008                        : gatt_task.o (.bss)
                  20004188    00000024                        : gattservapp.o (.bss)
                  200041ac    00000004                        : gattservapp.o (.bss)
                  200041b0    00000020                        : gattservapp.o (.bss)
                  200041d0    00000030                        : l2cap_task.o (.bss)
                  20004200    00000001                        : l2cap_util.o (.bss)
                  20004201    00000001                        : linkdb.o (.bss)
                  20004202    00000002     cc2640_ctrl_pxxx_sc.a : ll_slave_end_causes_patch.o (.bss)
                  20004204    00000038     host_pxxx_sc_del.a : linkdb.o (.bss)
                  2000423c    00000050                        : sm_pairing.o (.bss)
                  2000428c    00000010     cc2640_ctrl_pxxx_sc.a : hci_event_patch.o (.bss)
                  2000429c    00000001     cc26xx_hci_tl_none.a : hci_tl.o (.bss)
                  2000429d    00000001                          : hci_tl.o (.bss)
                  2000429e    00000001                          : hci_tl.o (.bss)
                  2000429f    00000001                          : hci_tl.o (.bss)
                  200042a0    00000008     cc2640_ctrl_pxxx_sc.a : ll_patch.o (.bss)
                  200042a8    00000001     cc26xx_hci_tl_none.a : hci_tl.o (.bss)
                  200042a9    00000001                          : hci_tl.o (.bss)
                  200042aa    00000002     --HOLE--
                  200042ac    00000004     hal_trng_wrapper.obj (.bss)
                  200042b0    0000003c     ble_dispatch.obj (.bss:$O3$$)
                  200042ec    0000000c     osal_timers.obj (.bss:$O9$$)
                  200042f8    0000000c     icall_startup.obj (.bss:$O11$$)
                  20004304    00000004     (.common:tasksEvents)

.data      0    20004308    000005d8     UNINITIALIZED
                  20004308    0000002c     host_pxxx_sc_del.a : gap_configmgr.o (.data)
                  20004334    00000050                        : gap_configmgr.o (.data)
                  20004384    0000001c                        : gap_linkmgr.o (.data)
                  200043a0    0000001c                        : gap_peridevmgr.o (.data)
                  200043bc    00000004                        : gap_perilinkmgr.o (.data)
                  200043c0    0000000c                        : gap_task.o (.data)
                  200043cc    00000001                        : gapgattserver.o (.data)
                  200043cd    00000001                        : gapgattserver.o (.data)
                  200043ce    00000001                        : gapgattserver.o (.data)
                  200043cf    00000001                        : gatt_server.o (.data)
                  200043d0    00000024                        : gapgattserver.o (.data)
                  200043f4    00000070                        : gapgattserver.o (.data)
                  20004464    00000008                        : gatt_server.o (.data)
                  2000446c    00000001                        : gatt_task.o (.data)
                  2000446d    00000001                        : gattservapp.o (.data)
                  2000446e    00000002                        : l2cap_task.o (.data)
                  20004470    00000010                        : gattservapp.o (.data)
                  20004480    00000008                        : l2cap_task.o (.data)
                  20004488    00000018                        : sm_rsppairing.o (.data)
                  200044a0    00000003                        : sm_task.o (.data)
                  200044a3    00000001     --HOLE--
                  200044a4    0000000c     cc2640_ctrl_pxxx_sc.a : ll_common_patch.o (.data)
                  200044b0    00000020                           : ll_config.o (.data)
                  200044d0    00000178                           : ll_patch.o (.data)
                  20004648    00000004     osal_bufmgr.obj (.data)
                  2000464c    00000008     hal_assert.obj (.data:$O1$$)
                  20004654    00000028     osal.obj (.data:$O4$$)
                  2000467c    0000007c     osal_cbtimer.obj (.data:$O5$$)
                  200046f8    00000008     osal_clock.obj (.data:$O6$$)
                  20004700    00000004     osal_pwrmgr.obj (.data:$O7$$)
                  20004704    00000004     osal_snv_wrapper.obj (.data:$O8$$)
                  20004708    000001d8     gapbondmgr.obj (.data:$O10$$)

.TI.bound:NV_FLASH 
*          0    0001e000    00001000     
                  0001e000    00001000     osal_snv_wrapper.obj (.TI.bound:NV_FLASH)

MODULE SUMMARY

       Module                                   code    ro data   rw data
       ------                                   ----    -------   -------
    .\HAL\Common\
       hal_assert.obj                           32      0         8      
    +--+----------------------------------------+-------+---------+---------+
       Total:                                   32      0         8      
                                                                         
    .\HAL\Target\CC2650\Drivers\
       hal_trng_wrapper.obj                     120     0         4      
       hal_flash_wrapper.obj                    88      0         0      
    +--+----------------------------------------+-------+---------+---------+
       Total:                                   208     0         4      
                                                                         
    .\ICallBLE\
       ble_dispatch.obj                         3220    0         60     
    +--+----------------------------------------+-------+---------+---------+
       Total:                                   3220    0         60     
                                                                         
    .\OSAL\
       osal_snv_wrapper.obj                     972     4096      4      
       osal.obj                                 1248    0         40     
       osal_timers.obj                          756     0         12     
       osal_cbtimer.obj                         400     0         124    
       osal_bufmgr.obj                          200     0         4      
       osal_pwrmgr.obj                          144     0         4      
       osal_memory_icall.obj                    68      0         0      
       osal_clock.obj                           0       0         8      
    +--+----------------------------------------+-------+---------+---------+
       Total:                                   3788    4096      196    
                                                                         
    .\PROFILES\
       gapbondmgr.obj                           2840    0         472    
       gattservapp_util.obj                     96      0         0      
       sm_ecc.obj                               4       0         0      
    +--+----------------------------------------+-------+---------+---------+
       Total:                                   2940    0         472    
                                                                         
    .\Startup\
       rom_jt.obj                               54      1744      0      
       icall_startup.obj                        1028    0         12     
       osal_icall_ble.obj                       56      40        0      
    +--+----------------------------------------+-------+---------+---------+
       Total:                                   1138    1784      12     
                                                                         
    .\TOOLS\
       onboard.obj                              20      0         0      
    +--+----------------------------------------+-------+---------+---------+
       Total:                                   20      0         0      
                                                                         
    C:\Users\Carlo\AppData\Local\Temp\
       {5743FF92-6472-4C43-816A-5FEBC4902A37}   160     0         4      
    +--+----------------------------------------+-------+---------+---------+
       Total:                                   160     0         4      
                                                                         
    C:\ti\simplelink\ble_sdk_2_02_02_25\src\rom\ble_rom_releases\04242014\
       ble_rom_patch.symbols                    912     0         0      
    +--+----------------------------------------+-------+---------+---------+
       Total:                                   912     0         0      
                                                                         
    C:/ti/tirtos_cc13xx_cc26xx_2_21_01_08/products/cc26xxware_2_24_03_17272/driverlib/bin/ccs/driverlib.lib
       interrupt.obj                            196     0         0      
       rom_crypto.obj                           84      0         0      
       flash.obj                                56      0         0      
       cpu.obj                                  24      0         0      
       vims.obj                                 20      0         0      
    +--+----------------------------------------+-------+---------+---------+
       Total:                                   380     0         0      
                                                                         
    C:\ti\ccs901\ccs\tools\compiler\ti-cgt-arm_18.12.1.LTS\lib\rtsv7M3_T_le_eabi.lib
       memcpy_t2.asm.obj                        156     0         0      
       ull_div_t2.asm.obj                       150     0         0      
       memset_t2.asm.obj                        122     0         0      
       copy_decompress_lzss.c.obj               104     0         0      
       autoinit.c.obj                           76      0         0      
       memcmp.c.obj                             36      0         0      
       ll_mul_t2.asm.obj                        24      0         0      
       strlen.c.obj                             20      0         0      
       copy_zero_init.c.obj                     18      0         0      
       copy_decompress_none.c.obj               14      0         0      
       div0.asm.obj                             2       0         0      
    +--+----------------------------------------+-------+---------+---------+
       Total:                                   722     0         0      
                                                                         
    C:\ti\simplelink\ble_sdk_2_02_02_25\blelib\ctrl\cc2640\cc2640_ctrl_pxxx_sc.a
       ll_patch.o                               6096    2         384    
       ll_common_patch.o                        3080    0         12     
       hci_event_patch.o                        1800    0         16     
       ll_slave_end_causes_patch.o              1790    0         2      
       ble_patch.o                              1276    0         0      
       ll_adv_end_causes_patch.o                1064    0         0      
       ll_isr.o                                 968     0         0      
       hci_patch.o                              824     0         0      
       ll_scheduler_patch.o                     424     0         0      
       ll_enc_patch.o                           332     0         0      
       ll_wl_patch.o                            174     0         0      
       hci_data_patch.o                         168     0         0      
       ll_config.o                              0       92        32     
       ll_sleep.o                               70      0         0      
       ll_rat_patch.o                           16      0         0      
    +--+----------------------------------------+-------+---------+---------+
       Total:                                   18082   94        446    
                                                                         
    C:\ti\simplelink\ble_sdk_2_02_02_25\blelib\hci_tl\cc26xx\cc26xx_hci_tl_none.a
       hci_tl.o                                 176     0         6      
    +--+----------------------------------------+-------+---------+---------+
       Total:                                   176     0         6      
                                                                         
    C:\ti\simplelink\ble_sdk_2_02_02_25\blelib\host\host_pxxx_sc_del.a
       gattservapp.o                            4352    8         89     
       sm_pairing.o                             3272    0         80     
       gatt_server.o                            2838    0         13     
       sm_mgr.o                                 2668    0         0      
       gap_linkmgr.o                            2512    0         32     
       sm_rsppairing.o                          2124    0         24     
       l2cap_util.o                             1676    0         1      
       gap_peridevmgr.o                         1572    0         28     
       att_util.o                               1484    0         0      
       smp.o                                    1070    0         0      
       gapgattserver.o                          812     8         155    
       gap_configmgr.o                          840     0         124    
       linkdb.o                                 776     0         57     
       gap_task.o                               764     0         16     
       gatt_task.o                              766     0         11     
       sm_task.o                                764     0         3      
       l2cap_task.o                             696     0         58     
       att_server.o                             492     0         4      
       l2cap_if.o                               406     0         1      
       gatt_uuid.o                              318     0         0      
       gap_perilinkmgr.o                        272     0         4      
       gap_devmgr.o                             176     0         9      
    +--+----------------------------------------+-------+---------+---------+
       Total:                                   30650   16        709    
                                                                         
       Linker Generated:                        0       1540      0      
    +--+----------------------------------------+-------+---------+---------+
       Grand Total:                             62428   7530      1917   


LINKER GENERATED COPY TABLES

__TI_cinit_table @ 0001cb5c records: 2, size/record: 8, table size: 16
	.data: load addr=0001cb70, load size=000005e0 bytes, run addr=20004308, run size=000005d8 bytes, compression=copy
	.bss: load addr=0001d150, load size=00000008 bytes, run addr=20004160, run size=000001a8 bytes, compression=zero_init


LINKER GENERATED HANDLER TABLE

__TI_handler_table @ 0001cb50 records: 3, size/record: 4, table size: 12
	index: 0, handler: __TI_decompress_lzss
	index: 1, handler: __TI_decompress_none
	index: 2, handler: __TI_zero_init


FAR CALL TRAMPOLINES

callee name               trampoline name
   callee addr  tramp addr   call addr  call info
--------------  -----------  ---------  ----------------
__TI_auto_init_nobinit_nopinit  $Tramp$TT$S$$__TI_auto_init_nobinit_nopinit
   00019589     0000d404     0000d00c   icall_startup.obj (EntrySection)
L2CAP_SetUserConfig       $Tramp$TT$S$$L2CAP_SetUserConfig
   00011995     0000d40c     0000d06c   icall_startup.obj (EntrySection)
ICall_enrollService$21    $Tramp$TT$S$$ICall_enrollService$21
   0001bf21     0000d414     0000d0ca   icall_startup.obj (EntrySection)
                             0000d1f6   icall_startup.obj (EntrySection)
halAssertHandlerExt       $Tramp$TT$S$$halAssertHandlerExt
   000199c1     0000d41c     0000d0da   icall_startup.obj (EntrySection)
HalFlashRead              $Tramp$TT$S$$HalFlashRead
   0001a077     0000d424     0000d104   icall_startup.obj (EntrySection)
findOffset$13             $Tramp$TT$S$$findOffset$13
   0001a5d5     0000d42c     0000d116   icall_startup.obj (EntrySection)
                             0000d12e   icall_startup.obj (EntrySection)
compactPage$13            $Tramp$TT$S$$compactPage$13
   0001a3ab     0000d434     0000d11a   icall_startup.obj (EntrySection)
erasePage$13              $Tramp$TT$S$$erasePage$13
   0001a361     0000d43c     0000d120   icall_startup.obj (EntrySection)
setActivePage$13          $Tramp$TT$S$$setActivePage$13
   0001a397     0000d444     0000d124   icall_startup.obj (EntrySection)
ICall_getTicks$14         $Tramp$TT$S$$ICall_getTicks$14
   0001966f     0000d44c     0000d13a   icall_startup.obj (EntrySection)
osal_mem_alloc            $Tramp$TT$S$$osal_mem_alloc
   0001bedd     0000d454     0000d14c   icall_startup.obj (EntrySection)
                             0000d166   icall_startup.obj (EntrySection)
osal_memset               $Tramp$TT$S$$osal_memset
   00019b7d     0000d45c     0000d156   icall_startup.obj (EntrySection)
                             0000d160   icall_startup.obj (EntrySection)
                             0000d174   icall_startup.obj (EntrySection)
                             0000d196   icall_startup.obj (EntrySection)
LL_Init                   $Tramp$TT$S$$LL_Init
   00017495     0000d464     0000d17a   icall_startup.obj (EntrySection)
HCI_Init                  $Tramp$TT$S$$HCI_Init
   0001931d     0000d46c     0000d180   icall_startup.obj (EntrySection)
L2CAP_Init                $Tramp$TT$S$$L2CAP_Init
   00011999     0000d474     0000d19c   icall_startup.obj (EntrySection)
GAP_Init                  $Tramp$TT$S$$GAP_Init
   0000f1af     0000d47c     0000d1a2   icall_startup.obj (EntrySection)
SM_Init                   $Tramp$TT$S$$SM_Init
   0001455d     0000d484     0000d1a8   icall_startup.obj (EntrySection)
GATT_Init                 $Tramp$TT$S$$GATT_Init
   0001031f     0000d48c     0000d1ae   icall_startup.obj (EntrySection)
GATTServApp_Init          $Tramp$TT$S$$GATTServApp_Init
   00010719     0000d494     0000d1b4   icall_startup.obj (EntrySection)
GAP_RegisterBondMgrCBs    $Tramp$TT$S$$GAP_RegisterBondMgrCBs
   0000f46d     0000d49c     0000d1c2   icall_startup.obj (EntrySection)
gapBondMgrReadBonds$16    $Tramp$TT$S$$gapBondMgrReadBonds$16
   0001ac67     0000d4a4     0000d1c6   icall_startup.obj (EntrySection)
osal_snv_read             $Tramp$TT$S$$osal_snv_read
   0001a297     0000d4ac     0000d1d2   icall_startup.obj (EntrySection)
ICall_setTimer$7          $Tramp$TT$S$$ICall_setTimer$7
   00019f69     0000d4b4     0000d248   icall_startup.obj (EntrySection)
ICall_abort$7             $Tramp$TT$S$$ICall_abort$7
   00019ef7     0000d4bc     0000d24e   icall_startup.obj (EntrySection)
                             0000d2ba   icall_startup.obj (EntrySection)
osal_next_timeout         $Tramp$TT$S$$osal_next_timeout
   00019893     0000d4c4     0000d254   icall_startup.obj (EntrySection)
                             0000d33e   icall_startup.obj (EntrySection)
osal_timer_refTimeUpdate  $Tramp$TT$S$$osal_timer_refTimeUpdate
   00019767     0000d4cc     0000d25c   icall_startup.obj (EntrySection)
osal_alien2proxy$7        $Tramp$TT$S$$osal_alien2proxy$7
   00019f15     0000d4d4     0000d29a   icall_startup.obj (EntrySection)
osal_msg_send             $Tramp$TT$S$$osal_msg_send
   00019d69     0000d4dc     0000d2b4   icall_startup.obj (EntrySection)
ICall_setTimerMSecs$7     $Tramp$TT$S$$ICall_setTimerMSecs$7
   00019f9d     0000d4e4     0000d378   icall_startup.obj (EntrySection)
ICall_signal$7            $Tramp$TT$S$$ICall_signal$7
   00019eb9     0000d4ec     0000d396   icall_startup.obj (EntrySection)
                             0000d3ac   icall_startup.obj (EntrySection)
HCI_ReadBDADDRCmd         $Tramp$TT$L$PI$$HCI_ReadBDADDRCmd
   10009765     0001c058     0000dcee   host_pxxx_sc_del.a : gap_configmgr.o (.text)
                             0001b436   ble_dispatch.obj (.text)
HCI_LE_SetRandomAddressCmd  $Tramp$TT$L$PI$$HCI_LE_SetRandomAddressCmd
   10009849     0001c060     0000debe   host_pxxx_sc_del.a : gap_configmgr.o (.text)
LL_ReadBDADDR             $Tramp$TT$L$PI$$LL_ReadBDADDR
   100056c9     0001c068     0000df8c   host_pxxx_sc_del.a : gap_configmgr.o (.text)
HCI_DisconnectCmd         $Tramp$TT$L$PI$$HCI_DisconnectCmd
   10009525     0001c070     0000e10e   host_pxxx_sc_del.a : gap_linkmgr.o (.text)
                             0000e6c6                      : gap_linkmgr.o (.text)
HCI_LE_SetAdvDataCmd      $Tramp$TT$L$PI$$HCI_LE_SetAdvDataCmd
   100098a1     0001c078     0000eb5c   host_pxxx_sc_del.a : gap_peridevmgr.o (.text)
                             0000eff4                      : gap_peridevmgr.o (.text)
HCI_LE_SetScanRspDataCmd  $Tramp$TT$L$PI$$HCI_LE_SetScanRspDataCmd
   100098bd     0001c080     0000eb66   host_pxxx_sc_del.a : gap_peridevmgr.o (.text)
                             0000effe                      : gap_peridevmgr.o (.text)
HCI_LE_SetAdvEnableCmd    $Tramp$TT$L$PI$$HCI_LE_SetAdvEnableCmd
   100098d9     0001c088     0000ebb6   host_pxxx_sc_del.a : gap_peridevmgr.o (.text)
                             0000ed84                      : gap_peridevmgr.o (.text)
HCI_LE_SetAdvParamCmd     $Tramp$TT$L$PI$$HCI_LE_SetAdvParamCmd
   1000986d     0001c090     0000eecc   host_pxxx_sc_del.a : gap_peridevmgr.o (.text)
HCI_SetControllerToHostFlowCtrlCmd  $Tramp$TT$L$PI$$HCI_SetControllerToHostFlowCtrlCmd
   100095f5     0001c098     00011926   host_pxxx_sc_del.a : l2cap_if.o (.text)
                             00011946                      : l2cap_if.o (.text)
HCI_HostBufferSizeCmd     $Tramp$TT$L$PI$$HCI_HostBufferSizeCmd
   10009631     0001c0a0     0001193c   host_pxxx_sc_del.a : l2cap_if.o (.text)
HCI_HostNumCompletedPktCmd  $Tramp$TT$L$PI$$HCI_HostNumCompletedPktCmd
   1000965d     0001c0a8     0001195a   host_pxxx_sc_del.a : l2cap_if.o (.text)
HCI_SendDataPkt           $Tramp$TT$L$PI$$HCI_SendDataPkt
   100094e9     0001c0b0     00011e38   host_pxxx_sc_del.a : l2cap_util.o (.text)
HCI_bm_alloc              $Tramp$TT$L$PI$$HCI_bm_alloc
   100094a1     0001c0b8     000122ba   host_pxxx_sc_del.a : l2cap_util.o (.text)
                             000165a4   cc2640_ctrl_pxxx_sc.a : ll_common_patch.o (.text)
LL_Encrypt                $Tramp$TT$L$PI$$LL_Encrypt
   100057d5     0001c0c0     000128fe   host_pxxx_sc_del.a : sm_mgr.o (.text)
HCI_LE_LtkReqReplyCmd     $Tramp$TT$L$PI$$HCI_LE_LtkReqReplyCmd
   10009bc5     0001c0c8     00013dd0   host_pxxx_sc_del.a : sm_rsppairing.o (.text)
HCI_LE_LtkReqNegReplyCmd  $Tramp$TT$L$PI$$HCI_LE_LtkReqNegReplyCmd
   10009be1     0001c0d0     00013dea   host_pxxx_sc_del.a : sm_rsppairing.o (.text)
llMemCopySrc              $Tramp$TT$L$PI$$llMemCopySrc
   100089d9     0001c0d8     00014ce8   cc2640_ctrl_pxxx_sc.a : ble_patch.o (.text)
                             00014cf4                         : ble_patch.o (.text)
                             00014d00                         : ble_patch.o (.text)
                             00014d0c                         : ble_patch.o (.text)
                             00014d30                         : ble_patch.o (.text)
                             00014d70                         : ble_patch.o (.text)
                             00014d7c                         : ble_patch.o (.text)
                             00014dd0                         : ble_patch.o (.text)
                             00014ddc                         : ble_patch.o (.text)
                             00014dea                         : ble_patch.o (.text)
                             00014e02                         : ble_patch.o (.text)
                             00014eb6                         : ble_patch.o (.text)
                             00014ec4                         : ble_patch.o (.text)
LL_ENC_ReverseBytes       $Tramp$TT$L$PI$$LL_ENC_ReverseBytes
   1000b4ed     0001c0e0     00014df4   cc2640_ctrl_pxxx_sc.a : ble_patch.o (.text)
                             00014e0a                         : ble_patch.o (.text)
LL_ENC_GenDeviceSKD       $Tramp$TT$L$PI$$LL_ENC_GenDeviceSKD
   1000b541     0001c0e8     00014e12   cc2640_ctrl_pxxx_sc.a : ble_patch.o (.text)
LL_ENC_GenDeviceIV        $Tramp$TT$L$PI$$LL_ENC_GenDeviceIV
   1000b555     0001c0f0     00014e1a   cc2640_ctrl_pxxx_sc.a : ble_patch.o (.text)
llEnqueueCtrlPkt          $Tramp$TT$L$PI$$llEnqueueCtrlPkt
   100080bd     0001c0f8     00014e50   cc2640_ctrl_pxxx_sc.a : ble_patch.o (.text)
                             00014ed8                         : ble_patch.o (.text)
                             00017a9e                         : ll_patch.o (.text)
llSetupUnknownRsp         $Tramp$TT$L$PI$$llSetupUnknownRsp
   10008069     0001c100     00014eec   cc2640_ctrl_pxxx_sc.a : ble_patch.o (.text)
                             00018bfc                         : ll_slave_end_causes_patch.o (.text)
LL_RX_bm_alloc            $Tramp$TT$L$PI$$LL_RX_bm_alloc
   1000556d     0001c108     00014f7a   cc2640_ctrl_pxxx_sc.a : ble_patch.o (.text)
                             00014fbc                         : ble_patch.o (.text)
                             00016698                         : ll_common_patch.o (.text)
llPatchCM0                $Tramp$TT$L$PI$$llPatchCM0
   1000adb1     0001c110     00015034   cc2640_ctrl_pxxx_sc.a : ble_patch.o (.text)
RFHAL_AllocRatChan        $Tramp$TT$L$PI$$RFHAL_AllocRatChan
   10018315     0001c118     00015038   cc2640_ctrl_pxxx_sc.a : ble_patch.o (.text)
RFHAL_RegisterRatChanCallback  $Tramp$TT$L$PI$$RFHAL_RegisterRatChanCallback
   10018391     0001c120     00015044   cc2640_ctrl_pxxx_sc.a : ble_patch.o (.text)
LL_CtrlToHostFlowControl  $Tramp$TT$L$PI$$LL_CtrlToHostFlowControl
   100058d5     0001c128     0001519e   cc2640_ctrl_pxxx_sc.a : hci_data_patch.o (.text)
HCI_SendCommandCompleteEvent  $Tramp$TT$L$PI$$HCI_SendCommandCompleteEvent
   10008c81     0001c130     00015888   cc2640_ctrl_pxxx_sc.a : hci_event_patch.o (.text)
HCI_CommandCompleteEvent  $Tramp$TT$L$PI$$HCI_CommandCompleteEvent
   10008add     0001c138     00015996   cc2640_ctrl_pxxx_sc.a : hci_patch.o (.text)
                             00015a52                         : hci_patch.o (.text)
                             00015a84                         : hci_patch.o (.text)
                             00015be8                         : hci_patch.o (.text)
                             00015c16                         : hci_patch.o (.text)
HCI_CommandStatusEvent    $Tramp$TT$L$PI$$HCI_CommandStatusEvent
   10008ba1     0001c140     00015a6e   cc2640_ctrl_pxxx_sc.a : hci_patch.o (.text)
                             00015a94                         : hci_patch.o (.text)
                             00015aaa                         : hci_patch.o (.text)
                             00015b0c                         : hci_patch.o (.text)
LL_EXT_ResetSystem        $Tramp$TT$L$PI$$LL_EXT_ResetSystem
   100070d5     0001c148     00015b24   cc2640_ctrl_pxxx_sc.a : hci_patch.o (.text)
LL_ReadLocalVersionInfo   $Tramp$TT$L$PI$$LL_ReadLocalVersionInfo
   1000589d     0001c150     00015ba4   cc2640_ctrl_pxxx_sc.a : hci_patch.o (.text)
llFreeTask                $Tramp$TT$L$PI$$llFreeTask
   1000abed     0001c158     00015c84   cc2640_ctrl_pxxx_sc.a : ll_adv_end_causes_patch.o (.text)
                             00015da0                         : ll_adv_end_causes_patch.o (.text)
                             00016422                         : ll_common_patch.o (.text)
                             00018334                         : ll_patch.o (.text)
LL_ENC_GeneratePseudoRandNum  $Tramp$TT$L$PI$$LL_ENC_GeneratePseudoRandNum
   1000b50d     0001c160     00015c98   cc2640_ctrl_pxxx_sc.a : ll_adv_end_causes_patch.o (.text)
                             00015d30                         : ll_adv_end_causes_patch.o (.text)
llScheduler               $Tramp$TT$L$PI$$llScheduler
   1000a335     0001c168     00015cc2   cc2640_ctrl_pxxx_sc.a : ll_adv_end_causes_patch.o (.text)
                             00015d6a                         : ll_adv_end_causes_patch.o (.text)
                             00016046                         : ll_adv_end_causes_patch.o (.text)
                             000182fc                         : ll_patch.o (.text)
                             00018340                         : ll_patch.o (.text)
                             0001892a                         : ll_slave_end_causes_patch.o (.text)
llConvertLstoToEvent      $Tramp$TT$L$PI$$llConvertLstoToEvent
   10008721     0001c170     00015eb4   cc2640_ctrl_pxxx_sc.a : ll_adv_end_causes_patch.o (.text)
                             00018a20                         : ll_slave_end_causes_patch.o (.text)
llConvertCtrlProcTimeoutToEvent  $Tramp$TT$L$PI$$llConvertCtrlProcTimeoutToEvent
   10008741     0001c178     00015ebe   cc2640_ctrl_pxxx_sc.a : ll_adv_end_causes_patch.o (.text)
                             00018a7a                         : ll_slave_end_causes_patch.o (.text)
llCalcScaFactor           $Tramp$TT$L$PI$$llCalcScaFactor
   1000d94d     0001c180     00015ed8   cc2640_ctrl_pxxx_sc.a : ll_adv_end_causes_patch.o (.text)
llConnTerminate           $Tramp$TT$L$PI$$llConnTerminate
   10008631     0001c188     00015f86   cc2640_ctrl_pxxx_sc.a : ll_adv_end_causes_patch.o (.text)
                             0001852e                         : ll_patch.o (.text)
                             000188be                         : ll_slave_end_causes_patch.o (.text)
                             00018ba4                         : ll_slave_end_causes_patch.o (.text)
                             00018c5c                         : ll_slave_end_causes_patch.o (.text)
RFHAL_InitDataQueue       $Tramp$TT$L$PI$$RFHAL_InitDataQueue
   100183b9     0001c190     00015f9a   cc2640_ctrl_pxxx_sc.a : ll_adv_end_causes_patch.o (.text)
                             000163ce                         : ll_common_patch.o (.text)
                             000163fe                         : ll_common_patch.o (.text)
llEventDelta              $Tramp$TT$L$PI$$llEventDelta
   10008719     0001c198     000160f8   cc2640_ctrl_pxxx_sc.a : ll_common_patch.o (.text)
                             00016974                         : ll_common_patch.o (.text)
                             000189ee                         : ll_slave_end_causes_patch.o (.text)
                             00018a3a                         : ll_slave_end_causes_patch.o (.text)
LL_TX_bm_alloc            $Tramp$TT$L$PI$$LL_TX_bm_alloc
   10005549     0001c1a0     0001626a   cc2640_ctrl_pxxx_sc.a : ll_common_patch.o (.text)
                             000162cc                         : ll_common_patch.o (.text)
                             000169d2                         : ll_common_patch.o (.text)
RFHAL_FreeNextTxDataEntry  $Tramp$TT$L$PI$$RFHAL_FreeNextTxDataEntry
   10018485     0001c1a8     00016330   cc2640_ctrl_pxxx_sc.a : ll_common_patch.o (.text)
                             0001639c                         : ll_common_patch.o (.text)
RFHAL_GetNextDataEntry    $Tramp$TT$L$PI$$RFHAL_GetNextDataEntry
   100184cd     0001c1b0     00016336   cc2640_ctrl_pxxx_sc.a : ll_common_patch.o (.text)
                             000163a2                         : ll_common_patch.o (.text)
                             000163e2                         : ll_common_patch.o (.text)
                             000191b4                         : ll_isr.o (.text)
RFHAL_GetTempDataEntry    $Tramp$TT$L$PI$$RFHAL_GetTempDataEntry
   100184d1     0001c1b8     000163ac   cc2640_ctrl_pxxx_sc.a : ll_common_patch.o (.text)
                             00016a9c                         : ll_common_patch.o (.text)
llReleaseConnId           $Tramp$TT$L$PI$$llReleaseConnId
   10008429     0001c1c0     0001641c   cc2640_ctrl_pxxx_sc.a : ll_common_patch.o (.text)
llTimeCompare             $Tramp$TT$L$PI$$llTimeCompare
   1000d8c9     0001c1c8     000164ce   cc2640_ctrl_pxxx_sc.a : ll_common_patch.o (.text)
                             0001674c                         : ll_common_patch.o (.text)
llGetCurrentTask          $Tramp$TT$L$PI$$llGetCurrentTask
   1000ac3d     0001c1d0     00016752   cc2640_ctrl_pxxx_sc.a : ll_common_patch.o (.text)
                             00017726                         : ll_patch.o (.text)
                             0001831a                         : ll_patch.o (.text)
                             00018508                         : ll_patch.o (.text)
                             00018512                         : ll_patch.o (.text)
llTimeDelta               $Tramp$TT$L$PI$$llTimeDelta
   1000d8f5     0001c1d8     00016764   cc2640_ctrl_pxxx_sc.a : ll_common_patch.o (.text)
llSetupRejectInd          $Tramp$TT$L$PI$$llSetupRejectInd
   10007df5     0001c1e0     000169b4   cc2640_ctrl_pxxx_sc.a : ll_common_patch.o (.text)
                             00018da2                         : ll_slave_end_causes_patch.o (.text)
LL_ENC_Init               $Tramp$TT$L$PI$$LL_ENC_Init
   1000b4c9     0001c1e8     00016cd6   cc2640_ctrl_pxxx_sc.a : ll_enc_patch.o (.text)
                             00016d44                         : ll_enc_patch.o (.text)
                             00017880                         : ll_patch.o (.text)
                             00018e74                         : ll_sleep.o (.text)
LL_ENC_LoadKey            $Tramp$TT$L$PI$$LL_ENC_LoadKey
   1000b58d     0001c1f0     00016cde   cc2640_ctrl_pxxx_sc.a : ll_enc_patch.o (.text)
                             00016d4c                         : ll_enc_patch.o (.text)
LL_ENC_GenerateNonce      $Tramp$TT$L$PI$$LL_ENC_GenerateNonce
   1000b569     0001c1f8     00016d00   cc2640_ctrl_pxxx_sc.a : ll_enc_patch.o (.text)
                             00016d70                         : ll_enc_patch.o (.text)
LL_ENC_EncryptMsg         $Tramp$TT$L$PI$$LL_ENC_EncryptMsg
   1000b721     0001c200     00016d0c   cc2640_ctrl_pxxx_sc.a : ll_enc_patch.o (.text)
LL_ENC_DecryptMsg         $Tramp$TT$L$PI$$LL_ENC_DecryptMsg
   1000b851     0001c208     00016d80   cc2640_ctrl_pxxx_sc.a : ll_enc_patch.o (.text)
LL_ENC_GenerateTrueRandNum  $Tramp$TT$L$PI$$LL_ENC_GenerateTrueRandNum
   1000b51d     0001c210     000176fc   cc2640_ctrl_pxxx_sc.a : ll_patch.o (.text)
                             00018390                         : ll_patch.o (.text)
WL_Init                   $Tramp$TT$L$PI$$WL_Init
   1000d189     0001c218     0001787c   cc2640_ctrl_pxxx_sc.a : ll_patch.o (.text)
LL_ClearWhiteList         $Tramp$TT$L$PI$$LL_ClearWhiteList
   10005719     0001c220     00017884   cc2640_ctrl_pxxx_sc.a : ll_patch.o (.text)
llReleaseAllConnId        $Tramp$TT$L$PI$$llReleaseAllConnId
   10008461     0001c228     000178e8   cc2640_ctrl_pxxx_sc.a : ll_patch.o (.text)
LL_ConnActive             $Tramp$TT$L$PI$$LL_ConnActive
   1000678d     0001c230     000179a6   cc2640_ctrl_pxxx_sc.a : ll_patch.o (.text)
                             000179f6                         : ll_patch.o (.text)
                             00017a34                         : ll_patch.o (.text)
                             00017a70                         : ll_patch.o (.text)
                             00017bba                         : ll_patch.o (.text)
                             00018420                         : ll_patch.o (.text)
                             00018468                         : ll_patch.o (.text)
                             00018500                         : ll_patch.o (.text)
HCI_DataBufferOverflowEvent  $Tramp$TT$L$PI$$HCI_DataBufferOverflowEvent
   10008a2d     0001c238     00017bda   cc2640_ctrl_pxxx_sc.a : ll_patch.o (.text)
LL_DirectTestEndDoneCback  $Tramp$TT$L$PI$$LL_DirectTestEndDoneCback
   10009471     0001c240     000180d2   cc2640_ctrl_pxxx_sc.a : ll_patch.o (.text)
                             00018108                         : ll_patch.o (.text)
llGetActiveTasks          $Tramp$TT$L$PI$$llGetActiveTasks
   1000aca9     0001c248     00018294   cc2640_ctrl_pxxx_sc.a : ll_patch.o (.text)
llSetupAdv                $Tramp$TT$L$PI$$llSetupAdv
   100073e5     0001c250     000182c0   cc2640_ctrl_pxxx_sc.a : ll_patch.o (.text)
llGetNumTasks             $Tramp$TT$L$PI$$llGetNumTasks
   1000ace1     0001c258     00018312   cc2640_ctrl_pxxx_sc.a : ll_patch.o (.text)
llCheckForLstoDuringSL    $Tramp$TT$L$PI$$llCheckForLstoDuringSL
   1000c1b5     0001c260     0001898e   cc2640_ctrl_pxxx_sc.a : ll_slave_end_causes_patch.o (.text)
llEventInRange            $Tramp$TT$L$PI$$llEventInRange
   100086f1     0001c268     000189b0   cc2640_ctrl_pxxx_sc.a : ll_slave_end_causes_patch.o (.text)
                             000189d0                         : ll_slave_end_causes_patch.o (.text)
LL_EncLtkReqCback         $Tramp$TT$L$PI$$LL_EncLtkReqCback
   1000925d     0001c270     00018c94   cc2640_ctrl_pxxx_sc.a : ll_slave_end_causes_patch.o (.text)
llSetupEncRsp             $Tramp$TT$L$PI$$llSetupEncRsp
   10007b95     0001c278     00018c9c   cc2640_ctrl_pxxx_sc.a : ll_slave_end_causes_patch.o (.text)
LL_ENC_AES128_Encrypt     $Tramp$TT$L$PI$$LL_ENC_AES128_Encrypt
   1000b5f5     0001c280     00018cf8   cc2640_ctrl_pxxx_sc.a : ll_slave_end_causes_patch.o (.text)
LL_EncKeyRefreshCback     $Tramp$TT$L$PI$$LL_EncKeyRefreshCback
   100093dd     0001c288     00018d2c   cc2640_ctrl_pxxx_sc.a : ll_slave_end_causes_patch.o (.text)
LL_EncChangeCback         $Tramp$TT$L$PI$$LL_EncChangeCback
   1000933d     0001c290     00018d36   cc2640_ctrl_pxxx_sc.a : ll_slave_end_causes_patch.o (.text)
llSetupStartEncRsp        $Tramp$TT$L$PI$$llSetupStartEncRsp
   10007ca9     0001c298     00018d48   cc2640_ctrl_pxxx_sc.a : ll_slave_end_causes_patch.o (.text)
llSetupPauseEncRsp        $Tramp$TT$L$PI$$llSetupPauseEncRsp
   10007d55     0001c2a0     00018d62   cc2640_ctrl_pxxx_sc.a : ll_slave_end_causes_patch.o (.text)
LL_ReadRemoteVersionInfoCback  $Tramp$TT$L$PI$$LL_ReadRemoteVersionInfoCback
   100091e1     0001c2a8     00018dda   cc2640_ctrl_pxxx_sc.a : ll_slave_end_causes_patch.o (.text)
                             00018dee                         : ll_slave_end_causes_patch.o (.text)
llSetupVersionIndReq      $Tramp$TT$L$PI$$llSetupVersionIndReq
   10007f29     0001c2b0     00018dfa   cc2640_ctrl_pxxx_sc.a : ll_slave_end_causes_patch.o (.text)
llMoveTempTxDataEntries   $Tramp$TT$L$PI$$llMoveTempTxDataEntries
   1000afa1     0001c2b8     00018e5a   cc2640_ctrl_pxxx_sc.a : ll_slave_end_causes_patch.o (.text)
WL_ClearEntry             $Tramp$TT$L$PI$$WL_ClearEntry
   1000d1f5     0001c2c0     00018eb6   cc2640_ctrl_pxxx_sc.a : ll_wl_patch.o (.text)
RFHAL_NextDataEntryDone   $Tramp$TT$L$PI$$RFHAL_NextDataEntryDone
   100184d5     0001c2c8     00019294   cc2640_ctrl_pxxx_sc.a : ll_isr.o (.text)
LL_PseudoRand             $Tramp$TT$L$PI$$LL_PseudoRand
   10005801     0001c2d0     00019aaa   onboard.obj (.text)
HCI_LE_ClearWhiteListCmd  $Tramp$TT$L$PI$$HCI_LE_ClearWhiteListCmd
   100099f9     0001c2d8     0001a85e   gapbondmgr.obj (.text)
                             0001b41a   ble_dispatch.obj (.text)
HCI_LE_AddWhiteListCmd    $Tramp$TT$L$PI$$HCI_LE_AddWhiteListCmd
   10009a15     0001c2e0     0001a876   gapbondmgr.obj (.text)
                             0001b416   ble_dispatch.obj (.text)
HCI_EXT_NumComplPktsLimitCmd  $Tramp$TT$L$PI$$HCI_EXT_NumComplPktsLimitCmd
   1000a1b5     0001c2e8     0001b348   ble_dispatch.obj (.text)
HCI_EXT_BuildRevisionCmd  $Tramp$TT$L$PI$$HCI_EXT_BuildRevisionCmd
   1000a109     0001c2f0     0001b35c   ble_dispatch.obj (.text)
HCI_EXT_SetSlaveLatencyOverrideCmd  $Tramp$TT$L$PI$$HCI_EXT_SetSlaveLatencyOverrideCmd
   10009e6d     0001c2f8     0001b362   ble_dispatch.obj (.text)
HCI_EXT_AdvEventNoticeCmd  $Tramp$TT$L$PI$$HCI_EXT_AdvEventNoticeCmd
   1000a0f1     0001c300     0001b376   ble_dispatch.obj (.text)
HCI_EXT_PERbyChanCmd      $Tramp$TT$L$PI$$HCI_EXT_PERbyChanCmd
   1000a075     0001c308     0001b37e   ble_dispatch.obj (.text)
HCI_EXT_PacketErrorRateCmd  $Tramp$TT$L$PI$$HCI_EXT_PacketErrorRateCmd
   1000a031     0001c310     0001b386   ble_dispatch.obj (.text)
HCI_EXT_DisconnectImmedCmd  $Tramp$TT$L$PI$$HCI_EXT_DisconnectImmedCmd
   1000a011     0001c318     0001b38c   ble_dispatch.obj (.text)
HCI_EXT_SetMaxDtmTxPowerCmd  $Tramp$TT$L$PI$$HCI_EXT_SetMaxDtmTxPowerCmd
   10009fd1     0001c320     0001b392   ble_dispatch.obj (.text)
HCI_EXT_EnablePTMCmd      $Tramp$TT$L$PI$$HCI_EXT_EnablePTMCmd
   10009f69     0001c328     0001b396   ble_dispatch.obj (.text)
HCI_EXT_SetSCACmd         $Tramp$TT$L$PI$$HCI_EXT_SetSCACmd
   10009f49     0001c330     0001b39c   ble_dispatch.obj (.text)
HCI_EXT_SetBDADDRCmd      $Tramp$TT$L$PI$$HCI_EXT_SetBDADDRCmd
   10009f0d     0001c338     0001b3a2   ble_dispatch.obj (.text)
HCI_EXT_EndModemTestCmd   $Tramp$TT$L$PI$$HCI_EXT_EndModemTestCmd
   10009eed     0001c340     0001b3a6   ble_dispatch.obj (.text)
HCI_EXT_ModemTestRxCmd    $Tramp$TT$L$PI$$HCI_EXT_ModemTestRxCmd
   10009ecd     0001c348     0001b3ac   ble_dispatch.obj (.text)
HCI_EXT_ModemHopTestTxCmd  $Tramp$TT$L$PI$$HCI_EXT_ModemHopTestTxCmd
   10009ead     0001c350     0001b3b0   ble_dispatch.obj (.text)
HCI_EXT_ModemTestTxCmd    $Tramp$TT$L$PI$$HCI_EXT_ModemTestTxCmd
   10009e8d     0001c358     0001b3b8   ble_dispatch.obj (.text)
HCI_EXT_SetFastTxResponseTimeCmd  $Tramp$TT$L$PI$$HCI_EXT_SetFastTxResponseTimeCmd
   10009e4d     0001c360     0001b3be   ble_dispatch.obj (.text)
HCI_EXT_SetLocalSupportedFeaturesCmd  $Tramp$TT$L$PI$$HCI_EXT_SetLocalSupportedFeaturesCmd
   10009e2d     0001c368     0001b3c4   ble_dispatch.obj (.text)
HCI_EXT_DecryptCmd        $Tramp$TT$L$PI$$HCI_EXT_DecryptCmd
   10009dd1     0001c370     0001b3cc   ble_dispatch.obj (.text)
HCI_EXT_OnePktPerEvtCmd   $Tramp$TT$L$PI$$HCI_EXT_OnePktPerEvtCmd
   10009d45     0001c378     0001b3d2   ble_dispatch.obj (.text)
HCI_EXT_SetTxPowerCmd     $Tramp$TT$L$PI$$HCI_EXT_SetTxPowerCmd
   10009d09     0001c380     0001b3d8   ble_dispatch.obj (.text)
HCI_LE_TestEndCmd         $Tramp$TT$L$PI$$HCI_LE_TestEndCmd
   10009c8d     0001c388     0001b3dc   ble_dispatch.obj (.text)
HCI_LE_ReadSupportedStatesCmd  $Tramp$TT$L$PI$$HCI_LE_ReadSupportedStatesCmd
   10009c15     0001c390     0001b3f2   ble_dispatch.obj (.text)
HCI_LE_EncryptCmd         $Tramp$TT$L$PI$$HCI_LE_EncryptCmd
   10009af5     0001c398     0001b3fa   ble_dispatch.obj (.text)
HCI_LE_ReadChannelMapCmd  $Tramp$TT$L$PI$$HCI_LE_ReadChannelMapCmd
   10009aa1     0001c3a0     0001b406   ble_dispatch.obj (.text)
HCI_LE_RemoveWhiteListCmd  $Tramp$TT$L$PI$$HCI_LE_RemoveWhiteListCmd
   10009a31     0001c3a8     0001b40e   ble_dispatch.obj (.text)
HCI_LE_ReadWhiteListSizeCmd  $Tramp$TT$L$PI$$HCI_LE_ReadWhiteListSizeCmd
   100099c9     0001c3b0     0001b41e   ble_dispatch.obj (.text)
HCI_LE_ReadAdvChanTxPowerCmd  $Tramp$TT$L$PI$$HCI_LE_ReadAdvChanTxPowerCmd
   100098f5     0001c3b8     0001b422   ble_dispatch.obj (.text)
HCI_LE_ReadLocalSupportedFeaturesCmd  $Tramp$TT$L$PI$$HCI_LE_ReadLocalSupportedFeaturesCmd
   10009829     0001c3c0     0001b426   ble_dispatch.obj (.text)
HCI_ReadLocalSupportedFeaturesCmd  $Tramp$TT$L$PI$$HCI_ReadLocalSupportedFeaturesCmd
   1000973d     0001c3c8     0001b43a   ble_dispatch.obj (.text)
HCI_ReadTransmitPowerLevelCmd  $Tramp$TT$L$PI$$HCI_ReadTransmitPowerLevelCmd
   100095d1     0001c3d0     0001b450   ble_dispatch.obj (.text)
HCI_SetEventMaskCmd       $Tramp$TT$L$PI$$HCI_SetEventMaskCmd
   10009571     0001c3d8     0001b45a   ble_dispatch.obj (.text)
HCI_ReadRemoteVersionInfoCmd  $Tramp$TT$L$PI$$HCI_ReadRemoteVersionInfoCmd
   10009541     0001c3e0     0001b460   ble_dispatch.obj (.text)

[144 trampolines]
[236 trampoline calls]


GLOBAL SYMBOLS: SORTED ALPHABETICALLY BY Name 

address   name                                       
-------   ----                                       
10014c00  A1_rw                                      
10005000  A1_rw_1                                    
10019ffe  A2_rw                                      
1000dffe  A2_rw_1                                    
10019ffc  A3_rw                                      
1000dffc  A3_rw_1                                    
20004f2c  A4_rw                                      
200048e8  A4_rw_1                                    
20004f7c  ACCX                                       
20004f80  ACCY                                       
20004f84  ACCZ                                       
10015229  ATOMICPATTERN                              
0000d73b  ATT_BuildErrorRsp                          
0000d76b  ATT_BuildExchangeMTUReq                    
0000d777  ATT_BuildExchangeMTURsp                    
0000daa1  ATT_BuildExecuteWriteReq                   
0000d805  ATT_BuildFindByTypeValueReq                
0000d861  ATT_BuildFindByTypeValueRsp                
0000d79d  ATT_BuildFindInfoReq                       
0000d7a9  ATT_BuildFindInfoRsp                       
0000dac5  ATT_BuildHandleValueInd                    
0000da27  ATT_BuildPrepareWriteReq                   
0000da51  ATT_BuildPrepareWriteRsp                   
0000d96b  ATT_BuildReadBlobReq                       
0000d9a9  ATT_BuildReadBlobRsp                       
0000d9e9  ATT_BuildReadByGrpTypeRsp                  
0000d883  ATT_BuildReadByTypeReq                     
0000d8ef  ATT_BuildReadByTypeRsp                     
0000d9bb  ATT_BuildReadMultiReq                      
0000d9e3  ATT_BuildReadMultiRsp                      
0000d913  ATT_BuildReadReq                           
0000d92f  ATT_BuildReadRsp                           
0000d95f  ATT_BuildWriteReq                          
0000db95  ATT_CompareUUID                            
0000dbe5  ATT_ConvertUUIDto128                       
0000dc0d  ATT_ConvertUUIDto16                        
0000d4fb  ATT_ErrorRsp                               
0000d50d  ATT_ExchangeMTURsp                         
0000d63f  ATT_ExecuteWriteRsp                        
0000d555  ATT_FindByTypeValueRsp                     
0000d525  ATT_FindInfoRsp                            
0000dc75  ATT_GetMTU                                 
0000dc97  ATT_GetParamValue                          
0000d661  ATT_HandleValueInd                         
0000d64b  ATT_HandleValueNoti                        
0000d74d  ATT_ParseErrorRsp                          
0000d76d  ATT_ParseExchangeMTUReq                    
0000d787  ATT_ParseExchangeMTURsp                    
0000daa9  ATT_ParseExecuteWriteReq                   
0000dabb  ATT_ParseExecuteWriteRsp                   
0000d81f  ATT_ParseFindByTypeValueReq                
0000d869  ATT_ParseFindByTypeValueRsp                
0000d79f  ATT_ParseFindInfoReq                       
0000d7c1  ATT_ParseFindInfoRsp                       
0000db05  ATT_ParseHandleValueCfm                    
0000dad9  ATT_ParseHandleValueInd                    
0000d6e1  ATT_ParsePacket                            
0000da29  ATT_ParsePrepareWriteReq                   
0000da6f  ATT_ParsePrepareWriteRsp                   
0000d985  ATT_ParseReadBlobReq                       
0000d9ad  ATT_ParseReadBlobRsp                       
0000d9fb  ATT_ParseReadByGrpTypeRsp                  
0000d8b3  ATT_ParseReadByTypeReq                     
0000d8f1  ATT_ParseReadByTypeRsp                     
0000d9c3  ATT_ParseReadMultiReq                      
0000d9e7  ATT_ParseReadMultiRsp                      
0000d915  ATT_ParseReadReq                           
0000d933  ATT_ParseReadRsp                           
0000d935  ATT_ParseWriteReq                          
0000d961  ATT_ParseWriteRsp                          
0000d625  ATT_PrepareWriteRsp                        
0000d5bd  ATT_ReadBlobRsp                            
0000d5f7  ATT_ReadByGrpTypeRsp                       
0000d575  ATT_ReadByTypeRsp                          
0000d5d9  ATT_ReadMultiRsp                           
0000d5a1  ATT_ReadRsp                                
0000d4f5  ATT_RegisterServer                         
0000dc95  ATT_SetParamValue                          
0000dc4b  ATT_UpdateMTU                              
0000d619  ATT_WriteRsp                               
10016c29  AddRoundKeySubBytes_Sw                     
10018a19  AesCcm_authEncrypt_Sw                      
10018a35  AesCcm_decryptAuth_Sw                      
10018b09  AesCcm_getNumBlocks_Sw                     
10018ac5  Aes_decrypt_Sw                             
10018a99  Aes_encrypt_Sw                             
20004f2c  COMMON_RAM_BASE_ADDR                       
10014c01  COMMON_ROM_BASE_ADDR                       
10015a6d  COPY                                       
0001bec9  ECC_ECDH_computeSharedSecret               
10017959  ECC_allocWorkzone                          
0001bebd  ECC_generateKey                            
000198d9  ECC_initialize                             
10017dbd  ECC_keyGen                                 
10017961  ECC_setWin                                 
10017ded  ECDH_commonKey                             
10017969  ECDSA_sign                                 
10017b01  ECDSA_verif                                
10015a11  EXPORTOPERAND                              
20004f78  EXPW                                       
20004f6c  EXPX                                       
20004f70  EXPY                                       
20004f74  EXPZ                                       
10016f58  FFMult2                                    
10017058  FFMult3                                    
10016d05  FFMult_Sw                                  
10018d6c  Fill1                                      
1000d9ec  Fill1_1                                    
0001b061  GAPBondMgr_LinkEst                         
0001acb9  GAPBondMgr_LinkTerm                        
0001aecd  GAPBondMgr_ProcessEvent                    
0001ad0d  GAPBondMgr_ProcessGAPMsg                   
0001a661  GAPBondMgr_ResolveAddr                     
0001a803  GAPBondMgr_UpdateCharCfg                   
0000e261  GAP_Authenticate                           
0000e39b  GAP_Bond                                   
0000dd43  GAP_ConfigDeviceAddr                       
0000eb6f  GAP_EndDiscoverable                        
0000ec65  GAP_GetAdvToken                            
0000dd3d  GAP_GetIRK                                 
0000dcc7  GAP_GetParamValue                          
0000f1af  GAP_Init                                   
0000ea75  GAP_MakeDiscoverable                       
0000f28d  GAP_NumActiveConnections                   
0000dcd9  GAP_ParamsInit                             
0000e34f  GAP_PasscodeUpdate                         
0000e31b  GAP_PasskeyUpdate                          
0000f0d3  GAP_PeriConnRegister                       
0000ecd9  GAP_PeriDevMgrInit                         
0000dd1b  GAP_PrivacyInit                            
0000f1c5  GAP_ProcessEvent                           
0000f46d  GAP_RegisterBondMgrCBs                     
0000f1a9  GAP_RegisterForMsgs                        
0000ec7b  GAP_RemoveAdvToken                         
0000dff5  GAP_ResolvePrivateAddr                     
0000dd01  GAP_SecParamsInit                          
0000f099  GAP_SendSlaveSecurityRequest               
0000ebbb  GAP_SetAdvToken                            
0000dcad  GAP_SetParamValue                          
0000e219  GAP_Signable                               
0000e2fd  GAP_TerminateAuth                          
0000e0a5  GAP_TerminateLinkReq                       
0000ecc5  GAP_UpdateAdvTokens                        
0000eb07  GAP_UpdateAdvertisingData                  
0000e11f  GAP_UpdateLinkParamReq                     
0000e187  GAP_UpdateLinkParamReqReply                
00010a23  GATTServApp_AddService                     
00010a39  GATTServApp_DelService                     
000107f5  GATTServApp_DeregisterService              
00011727  GATTServApp_GetParamValue                  
00010897  GATTServApp_GetParameter                   
00010719  GATTServApp_Init                           
0001c025  GATTServApp_InitCharCfg                    
00010767  GATTServApp_ProcessEvent                   
000114a5  GATTServApp_ReadAttr                       
0001c015  GATTServApp_ReadCharCfg                    
000108ab  GATTServApp_ReadRsp                        
00010711  GATTServApp_RegisterForMsg                 
0001079f  GATTServApp_RegisterService                
000117b9  GATTServApp_SendCCCUpdatedEvent            
00011725  GATTServApp_SetParamValue                  
00010839  GATTServApp_SetParameter                   
200041a0  GATTServApp_TaskID                         
0001172b  GATTServApp_UpdateCharCfg                  
0001169d  GATTServApp_WriteAttr                      
000102f7  GATT_AppCompletedMsg                       
0000f8c5  GATT_DeregisterService                     
0000fa67  GATT_FindHandle                            
0000fa09  GATT_FindHandleUUID                        
0000fab3  GATT_FindNextAttr                          
000105d1  GATT_FindUUIDRec                           
00010265  GATT_GetNextHandle                         
0000fc07  GATT_Indication                            
0001031f  GATT_Init                                  
0000f7c1  GATT_InitServer                            
0000fc73  GATT_Notification                          
00010489  GATT_NotifyEvent                           
0001033d  GATT_ProcessEvent                          
000102e5  GATT_RegisterForMsgs                       
0000f905  GATT_RegisterForReq                        
0000f829  GATT_RegisterService                       
0000fb53  GATT_SendRsp                               
0000f997  GATT_ServiceChangedInd                     
0000fb43  GATT_ServiceEncKeySize                     
0000fb37  GATT_ServiceNumAttrs                       
000102eb  GATT_SetHostToAppFlowCtrl                  
000102d5  GATT_SetNextHandle                         
0001049d  GATT_UpdateMTU                             
0000f90d  GATT_VerifyReadPermissions                 
0000f943  GATT_VerifyWritePermissions                
00010545  GATT_bm_alloc                              
000105bd  GATT_bm_free                               
10015141  GETBIT                                     
10015155  GETDIGIT                                   
100151a5  GETDIGITL2R                                
0000f551  GGS_AddService                             
0000f569  GGS_DelService                             
0000f54d  GGS_GetParamValue                          
0000f515  GGS_GetParameter                           
0000f57d  GGS_RegisterAppCBs                         
0000f54b  GGS_SetParamValue                          
0000f495  GGS_SetParameter                           
10008add  HCI_CommandCompleteEvent                   
10008ba1  HCI_CommandStatusEvent                     
10008a2d  HCI_DataBufferOverflowEvent                
10009525  HCI_DisconnectCmd                          
1000a0f1  HCI_EXT_AdvEventNoticeCmd                  
1000a109  HCI_EXT_BuildRevisionCmd                   
10009d79  HCI_EXT_ClkDivOnHaltCmd                    
00015b5f  HCI_EXT_ConnEventNoticeCmd                 
10009dad  HCI_EXT_DeclareNvUsageCmd                  
10009dd1  HCI_EXT_DecryptCmd                         
00015b3b  HCI_EXT_DelaySleepCmd                      
1000a011  HCI_EXT_DisconnectImmedCmd                 
10009f69  HCI_EXT_EnablePTMCmd                       
10009eed  HCI_EXT_EndModemTestCmd                    
1000a095  HCI_EXT_ExtendRfRangeCmd                   
0001599f  HCI_EXT_GetConnInfoCmd                     
1000a0d1  HCI_EXT_HaltDuringRfCmd                    
10009ff1  HCI_EXT_MapPmIoPortCmd                     
10009ead  HCI_EXT_ModemHopTestTxCmd                  
10009ecd  HCI_EXT_ModemTestRxCmd                     
10009e8d  HCI_EXT_ModemTestTxCmd                     
1000a1b5  HCI_EXT_NumComplPktsLimitCmd               
10009d45  HCI_EXT_OnePktPerEvtCmd                    
1000a195  HCI_EXT_OverlappedProcessingCmd            
1000a075  HCI_EXT_PERbyChanCmd                       
1000a031  HCI_EXT_PacketErrorRateCmd                 
00015b15  HCI_EXT_ResetSystemCmd                     
10009fb1  HCI_EXT_SaveFreqTuneCmd                    
10009f0d  HCI_EXT_SetBDADDRCmd                       
10009e4d  HCI_EXT_SetFastTxResponseTimeCmd           
10009f81  HCI_EXT_SetFreqTuneCmd                     
10009e2d  HCI_EXT_SetLocalSupportedFeaturesCmd       
10009fd1  HCI_EXT_SetMaxDtmTxPowerCmd                
10009cd5  HCI_EXT_SetRxGainCmd                       
10009f49  HCI_EXT_SetSCACmd                          
10009e6d  HCI_EXT_SetSlaveLatencyOverrideCmd         
10009d09  HCI_EXT_SetTxPowerCmd                      
000193a3  HCI_ExtTaskRegister                        
00019391  HCI_GAPTaskRegister                        
00015891  HCI_HardwareErrorEvent                     
10009631  HCI_HostBufferSizeCmd                      
1000965d  HCI_HostNumCompletedPktCmd                 
0001931d  HCI_Init                                   
00019397  HCI_L2CAPTaskRegister                      
10009a15  HCI_LE_AddWhiteListCmd                     
100099f9  HCI_LE_ClearWhiteListCmd                   
00015b05  HCI_LE_ConnUpdateCmd                       
1000999d  HCI_LE_CreateConnCancelCmd                 
1000995d  HCI_LE_CreateConnCmd                       
10009af5  HCI_LE_EncryptCmd                          
00015aa1  HCI_LE_GenerateDHKeyCmd                    
10009be1  HCI_LE_LtkReqNegReplyCmd                   
10009bc5  HCI_LE_LtkReqReplyCmd                      
10009b51  HCI_LE_RandCmd                             
100098f5  HCI_LE_ReadAdvChanTxPowerCmd               
00015a2d  HCI_LE_ReadBufSizeCmd                      
10009aa1  HCI_LE_ReadChannelMapCmd                   
00015a8d  HCI_LE_ReadLocalP256PublicKeyCmd           
10009829  HCI_LE_ReadLocalSupportedFeaturesCmd       
00015a63  HCI_LE_ReadRemoteUsedFeaturesCmd           
10009c15  HCI_LE_ReadSupportedStatesCmd              
100099c9  HCI_LE_ReadWhiteListSizeCmd                
00015acb  HCI_LE_ReceiverTestCmd                     
00015a5f  HCI_LE_RemoteConnParamReqNegReplyCmd       
00015a5b  HCI_LE_RemoteConnParamReqReplyCmd          
10009a31  HCI_LE_RemoveWhiteListCmd                  
100098a1  HCI_LE_SetAdvDataCmd                       
100098d9  HCI_LE_SetAdvEnableCmd                     
1000986d  HCI_LE_SetAdvParamCmd                      
00015b63  HCI_LE_SetEventMaskCmd                     
10009a85  HCI_LE_SetHostChanClassificationCmd        
10009849  HCI_LE_SetRandomAddressCmd                 
10009941  HCI_LE_SetScanEnableCmd                    
10009915  HCI_LE_SetScanParamCmd                     
100098bd  HCI_LE_SetScanRspDataCmd                   
10009ba9  HCI_LE_StartEncyptCmd                      
10009c8d  HCI_LE_TestEndCmd                          
00015ab9  HCI_LE_TransmitterTestCmd                  
00015365  HCI_NumOfCompletedPacketsEvent             
0001934f  HCI_ProcessEvent                           
10009765  HCI_ReadBDADDRCmd                          
0001598b  HCI_ReadLocalSupportedCommandsCmd          
1000973d  HCI_ReadLocalSupportedFeaturesCmd          
00015b99  HCI_ReadLocalVersionInfoCmd                
10009541  HCI_ReadRemoteVersionInfoCmd               
00015bf3  HCI_ReadRssiCmd                            
100095d1  HCI_ReadTransmitPowerLevelCmd              
00015969  HCI_ResetCmd                               
1000d7cd  HCI_ReverseBytes                           
0001939d  HCI_SMPTaskRegister                        
10008c81  HCI_SendCommandCompleteEvent               
10008c59  HCI_SendCommandStatusEvent                 
10008d31  HCI_SendControllerToHostEvent              
100094e9  HCI_SendDataPkt                            
100095f5  HCI_SetControllerToHostFlowCtrlCmd         
10009571  HCI_SetEventMaskCmd                        
00015add  HCI_SetEventMaskPage2Cmd                   
0001938b  HCI_TestAppTaskRegister                    
0001592d  HCI_ValidConnTimeParams                    
00015839  HCI_VendorSpecifcCommandCompleteEvent      
100094a1  HCI_bm_alloc                               
0001a05d  HalFlashGetAddress                         
0001a077  HalFlashRead                               
0001a0a3  HalFlashWrite                              
00019973  HalTRNG_GetTRNG                            
00019945  HalTRNG_InitTRNG                           
200042f8  ICall_dispatcher                           
200042fc  ICall_enterCriticalSection                 
20004300  ICall_leaveCriticalSection                 
10015a35  IMPORTDATA                                 
100159a9  IMPORTLENGTH                               
100159ad  IMPORTMODULUS                              
100159d1  IMPORTOPERAND                              
1001568d  INVERT                                     
10016da1  InvAddRoundKey_Sw                          
10016ed5  InvMixColumns_Sw                           
10016dc9  InvRoundKey_Sw                             
10017264  InvSbox                                    
10016ea1  InvShiftRows_Sw                            
10016e8d  InvSubBytes_Sw                             
100154f5  JACADD                                     
00011ec5  L2CAP_BuildCmdReject                       
00011fdd  L2CAP_BuildInfoRsp                         
00011fa9  L2CAP_BuildParamUpdateRsp                  
000118a3  L2CAP_CmdReject                            
000118c9  L2CAP_ConnParamUpdateReq                   
000118ff  L2CAP_ConnParamUpdateRsp                   
0001196d  L2CAP_GetMTU                               
000122d1  L2CAP_GetParamValue                        
0001194b  L2CAP_HostNumCompletedPkts                 
000118b1  L2CAP_InfoReq                              
00011999  L2CAP_Init                                 
00011fc5  L2CAP_ParseInfoReq                         
00011f6f  L2CAP_ParseParamUpdateReq                  
000119fb  L2CAP_ProcessEvent                         
00011809  L2CAP_RegisterApp                          
00011b09  L2CAP_RegisterFlowCtrlTask                 
00011833  L2CAP_SendData                             
00011961  L2CAP_SetBufSize                           
00011911  L2CAP_SetControllerToHostFlowCtrl          
000122cf  L2CAP_SetParamValue                        
00011995  L2CAP_SetUserConfig                        
000122b5  L2CAP_bm_alloc                             
20004fe8  LEN                                        
10005739  LL_AddWhiteListDevice                      
10008d81  LL_AdvReportCback                          
0001543d  LL_AuthPayloadTimeoutExpiredCback          
10005719  LL_ClearWhiteList                          
1000678d  LL_ConnActive                              
0001526b  LL_ConnParamUpdateCback                    
10008ead  LL_ConnectionCompleteCback                 
100058d5  LL_CtrlToHostFlowControl                   
0001809d  LL_DirectTestEnd                           
10009471  LL_DirectTestEndDoneCback                  
00017fa9  LL_DirectTestRxTest                        
00017e23  LL_DirectTestTxTest                        
10005a39  LL_Disconnect                              
10009005  LL_DisconnectCback                         
00018f8b  LL_DoorbellErrorCback                      
1000b639  LL_ENC_AES128_Decrypt                      
1000b5f5  LL_ENC_AES128_Encrypt                      
00016d2f  LL_ENC_Decrypt                             
1000b851  LL_ENC_DecryptMsg                          
00016cc1  LL_ENC_Encrypt                             
1000b721  LL_ENC_EncryptMsg                          
1000b555  LL_ENC_GenDeviceIV                         
1000b541  LL_ENC_GenDeviceSKD                        
1000b569  LL_ENC_GenerateNonce                       
1000b50d  LL_ENC_GeneratePseudoRandNum               
1000b51d  LL_ENC_GenerateTrueRandNum                 
1000b4c9  LL_ENC_Init                                
1000b58d  LL_ENC_LoadKey                             
1000b4ed  LL_ENC_ReverseBytes                        
10007025  LL_EXT_AdvEventNotice                      
000184d1  LL_EXT_BuildRevision                       
10006b7d  LL_EXT_ClkDivOnHalt                        
00018461  LL_EXT_ConnEventNotice                     
10006b81  LL_EXT_DeclareNvUsage                      
10006b85  LL_EXT_Decrypt                             
100070a1  LL_EXT_DelaySleep                          
000184fd  LL_EXT_DisconnectImmed                     
00017dfd  LL_EXT_EndModemTest                        
1000701d  LL_EXT_ExtendRfRange                       
1000a2ad  LL_EXT_ExtendRfRangeCback                  
0001793f  LL_EXT_GetConnInfo                         
10007021  LL_EXT_HaltDuringRf                        
10006f49  LL_EXT_MapPmIoPort                         
00017c41  LL_EXT_ModemHopTestTx                      
00017d65  LL_EXT_ModemTestRx                         
00017ce1  LL_EXT_ModemTestTx                         
000184a1  LL_EXT_NumComplPktsLimit                   
10006b59  LL_EXT_OnePacketPerEvent                   
10007109  LL_EXT_OverlappedProcessing                
10006fed  LL_EXT_PERbyChan                           
10006f99  LL_EXT_PacketErrorRate                     
1000a259  LL_EXT_PacketErrorRateCback                
100070d5  LL_EXT_ResetSystem                         
10006efd  LL_EXT_SaveFreqTune                        
10006e01  LL_EXT_SetBDADDR                           
10006bc5  LL_EXT_SetFastTxResponseTime               
10006ef9  LL_EXT_SetFreqTune                         
00017abd  LL_EXT_SetLocalSupportedFeatures           
00017b2d  LL_EXT_SetMaxDtmTxPower                    
10006ad9  LL_EXT_SetRxGain                           
1000a201  LL_EXT_SetRxGainCback                      
10006e85  LL_EXT_SetSCA                              
10006bdd  LL_EXT_SetSlaveLatencyOverride             
00017b01  LL_EXT_SetTxPower                          
1000a211  LL_EXT_SetTxPowerCback                     
1000933d  LL_EncChangeCback                          
100093dd  LL_EncKeyRefreshCback                      
00017a31  LL_EncLtkNegReply                          
000179eb  LL_EncLtkReply                             
1000925d  LL_EncLtkReqCback                          
100057d5  LL_Encrypt                                 
00015623  LL_EnhancedConnectionCompleteCback         
000183b9  LL_GenerateDHKeyCmd                        
0001556b  LL_GenerateDHKeyCompleteEventCback         
00018377  LL_GetNumActiveConns                       
00017495  LL_Init                                    
00018f9d  LL_LastCmdDoneCback                        
100057b9  LL_NumEmptyWlEntries                       
00018e65  LL_PM_Enter_AES                            
00018e7b  LL_PM_Exit_AES                             
00018e61  LL_PM_GetRfCoreState                       
00018ea5  LL_PM_PowerOffRfCore                       
0001771d  LL_ProcessEvent                            
10005801  LL_PseudoRand                              
1000556d  LL_RX_bm_alloc                             
100057f5  LL_Rand                                    
1000a1d5  LL_RandCback                               
10006105  LL_ReadAdvChanTxPower                      
100056c9  LL_ReadBDADDR                              
100059a1  LL_ReadChanMap                             
00018383  LL_ReadLocalP256PublicKeyCmd               
000154a1  LL_ReadLocalP256PublicKeyCompleteEventCback
10005879  LL_ReadLocalSupportedFeatures              
1000589d  LL_ReadLocalVersionInfo                    
00017a6d  LL_ReadRemoteUsedFeatures                  
000152f9  LL_ReadRemoteUsedFeaturesCompleteCback     
100058e9  LL_ReadRemoteVersionInfo                   
100091e1  LL_ReadRemoteVersionInfoCback              
000183f9  LL_ReadRssi                                
0001835b  LL_ReadSupportedStates                     
00017b49  LL_ReadTxPowerLevel                        
100057a1  LL_ReadWlSize                              
10005765  LL_RemoveWhiteListDevice                   
00017845  LL_Reset                                   
0001517d  LL_RxDataCompleteCback                     
0001917f  LL_RxEntryDoneCback                        
0001917d  LL_RxIgnoredCback                          
00018255  LL_SetAdvControl                           
10005f89  LL_SetAdvData                              
0001813d  LL_SetAdvParam                             
100056e9  LL_SetRandomAddress                        
1000612d  LL_SetScanRspData                          
10005549  LL_TX_bm_alloc                             
20004c84  LL_TaskID                                  
00017b87  LL_TxData                                  
0001914f  LL_TxDoneCback                             
00019163  LL_TxEntryDoneCback                        
100158ac  LUTC                                       
100158dc  LUTINCI                                    
100158f4  LUTJ                                       
1001588c  LUTOPCODE                                  
10015894  LUTOPSIGN                                  
100158c4  LUTSE                                      
1001596c  LUTSTATE                                   
20004fe4  MOD                                        
20004fd8  MSBMOD                                     
10016c79  MixColumns_Sw                              
10018b9c  NIST256_Gx                                 
10018bc0  NIST256_Gy                                 
10018b54  NIST256_a                                  
10018b78  NIST256_b                                  
10018b0c  NIST256_p                                  
10018b30  NIST256_r                                  
000195d9  NOROM_CPUcpsid                             
000195cd  NOROM_CPUcpsie                             
0001b13d  NOROM_FlashProgram                         
0001b17d  NOROM_FlashSectorErase                     
000199dd  NOROM_IntDisable                           
00019a45  NOROM_IntEnable                            
0001b129  NOROM_VIMSModeGet                          
0001e000  NV_FLASH                                   
200046fc  OSAL_timeSeconds                           
00019aa5  Onboard_rand                               
00019aa1  Onboard_soft_reset                         
10014c04  P1_ro                                      
10005004  P1_ro_1                                    
10019ffe  P1_ro_2                                    
1000dffe  P1_ro_2_1                                  
20004f40  P2_rw                                      
20004f40  P2_s0                                      
20004fac  P2_zi                                      
200048fc  P2_zi_1                                    
0001c428  R2F_Flash_JT                               
0001c410  R2F_Flash_JT_CommonROM                     
0001c5c4  R2R_Flash_JT                               
0001c4d0  R2R_Flash_JT_CommonROM                     
200048e8  RAM_BASE_ADDR                              
10017158  RCon                                       
000150e3  RFHAL_AddTxDataEntry                       
100184f9  RFHAL_AllocDataEntry                       
100184a9  RFHAL_AllocDataEntryQueue                  
10018315  RFHAL_AllocRatChan                         
100185e1  RFHAL_BuildDataEntryRingBuffer             
10018669  RFHAL_BuildLinkedBuffer                    
10018551  RFHAL_BuildRingBuffer                      
10018549  RFHAL_FreeDataEntry                        
100184c5  RFHAL_FreeDataEntryQueue                   
10018485  RFHAL_FreeNextTxDataEntry                  
1001833d  RFHAL_FreeRatChan                          
100184cd  RFHAL_GetNextDataEntry                     
100184d1  RFHAL_GetTempDataEntry                     
100183b9  RFHAL_InitDataQueue                        
0001507f  RFHAL_InitRfHal                            
10018369  RFHAL_MapRatChansToInt                     
100184d5  RFHAL_NextDataEntryDone                    
100183c5  RFHAL_QueueRFDataEntries                   
10018391  RFHAL_RegisterRatChanCallback              
10005001  ROM_BASE_ADDR                              
0001990d  ROM_Spinlock                               
10016b79  RoundKey_Sw                                
10015101  SAVEPOINT                                  
1000d964  SCA                                        
20004f68  SCAL                                       
100150e5  SCALARMUL                                  
10014ced  SCALARMUL_core                             
10015019  SCALARMUL_final                            
10014c05  SCALARMUL_init                             
10015a51  SETOPERAND                                 
10015a91  SETWORD                                    
10018089  SHA256_final                               
10018129  SHA256_full                                
10017ffd  SHA256_init                                
10017ef1  SHA256_nextState                           
10018019  SHA256_process                             
10017e75  SHA256_round                               
10017f49  SHA256_saveBuffer                          
10017e39  SHA256_updateW                             
000125dd  SM_CalcRandomAddr                          
0001266b  SM_Encrypt                                 
00012903  SM_GenerateAuthenSig                       
000147bb  SM_GetDHKey                                
0001477d  SM_GetEccKeys                              
00014841  SM_GetScConfirmOob                         
0001455d  SM_Init                                    
000130d7  SM_PasskeyUpdate                           
00014581  SM_ProcessEvent                            
00014777  SM_RegisterTask                            
00012615  SM_ResolveRandomAddrs                      
00013d11  SM_ResponderInit                           
0001386f  SM_SetECCRegenerationCount                 
00013049  SM_StartPairing                            
0001299d  SM_VerifyAuthenSig                         
200044a1  SM_appTaskID                               
0001bff7  SM_dhKeyCB                                 
0001bff5  SM_p256KeyCB                               
10015821  SQUAREMULTIPLYWORD                         
10017895  SSP_CCM_Auth_Encrypt_Sw                    
10017365  SSP_CCM_Auth_Sw                            
1001767d  SSP_CCM_Decrypt_Sw                         
100174fd  SSP_CCM_Encrypt_Sw                         
100178f5  SSP_CCM_InvAuth_Decrypt_Sw                 
10017839  SSP_CCM_InvAuth_Sw                         
10017771  SSP_CTR_Decrypt_Sw                         
100175ed  SSP_CTR_Encrypt_Sw                         
10017164  Sbox                                       
10015215  SelectReg                                  
10016c45  ShiftRows_Sw                               
20004520  SysBootMsg                                 
20004f88  TMP1                                       
20004f8c  TMP2                                       
20004f90  TMP3                                       
20004f94  TMP4                                       
20004f98  TMP5                                       
20004f9c  TMP6                                       
1000d2d9  WL_AddEntry                                
00018ea7  WL_Clear                                   
1000d1f5  WL_ClearEntry                              
00018f37  WL_ClearIgnoreList                         
00018ed5  WL_FindEntry                               
00018ecb  WL_GetNumFreeEntries                       
1000d229  WL_GetSize                                 
1000d189  WL_Init                                    
1000d36d  WL_RemoveEntry                             
00018f17  WL_SetWlIgnore                             
10015a85  ZERO                                       
0001cb5c  __TI_CINIT_Base                            
0001cb6c  __TI_CINIT_Limit                           
0001cb50  __TI_Handler_Table_Base                    
0001cb5c  __TI_Handler_Table_Limit                   
00019589  __TI_auto_init_nobinit_nopinit             
0001bf8d  __TI_decompress_lzss                       
0001bf7f  __TI_decompress_none                       
ffffffff  __TI_pprof_out_hndl                        
ffffffff  __TI_prof_data_size                        
ffffffff  __TI_prof_data_start                       
0000d000  __TI_static_base__                         
0001bf6d  __TI_zero_init_nomemset                    
000102d7  __aeabi_idiv0                              
000102d7  __aeabi_ldiv0                              
0001945b  __aeabi_lmul                               
0001950f  __aeabi_memclr                             
0001950f  __aeabi_memclr4                            
0001950f  __aeabi_memclr8                            
00019473  __aeabi_memcpy                             
00019473  __aeabi_memcpy4                            
00019473  __aeabi_memcpy8                            
00019511  __aeabi_memset                             
00019511  __aeabi_memset4                            
00019511  __aeabi_memset8                            
000193c5  __aeabi_uldivmod                           
ffffffff  __binit__                                  
ffffffff  __c_args__                                 
1000dffe  __checksum                                 
10019ffe  __checksum_CommonROM                       
10005000  __checksum_begin                           
10014c00  __checksum_begin_CommonROM                 
1000dffd  __checksum_end                             
10019ffd  __checksum_end_CommonROM                   
00005721  __checksum_value                           
0000e0ea  __checksum_value_CommonROM                 
10018ced  __exit                                     
UNDEFED   _system_post_cinit                         
1000d9b0  advChan                                    
20004c24  advCmd                                     
20004bdc  advDataEntry                               
20004c14  advDataQueue                               
1000d9b4  advEvt2Cmd                                 
1000d9c0  advEvt2State                               
200049ec  advInfo                                    
200044d4  advInfoExt                                 
20004e98  advOutput                                  
20004d58  advParam                                   
0001cb04  advPktSuffix                               
00019aa3  appForceBoot                               
2000446d  appTaskID                                  
000106f0  appearanceUUID                             
2000464c  assertSubcause                             
0000db0f  attSendMsg                                 
20004fdc  aux64                                      
2000467c  baseTaskID                                 
ffffffff  binit                                      
0001bde5  bleDispatch_BMAlloc                        
0001be11  bleDispatch_BMFree                         
0001b46d  bleDispatch_ProcessEvent                   
200042b0  bleDispatch_TaskID                         
20004f08  bleEvtMask                                 
0000dc9c  btBaseUUID                                 
20004c98  buildInfo                                  
20004ee8  cachedTRNGdata                             
20004680  cbTimers                                   
20004ca8  chanMapUpdate                              
000106e8  charAggFormatUUID                          
000106d4  charExtPropsUUID                           
000106e4  charFormatUUID                             
000106d8  charUserDescUUID                           
000106d0  characterUUID                              
000106dc  clientCharCfgUUID                          
20004e70  connOutput                                 
20004dc8  connReqData                                
00013038  const_Rb                                   
20004564  cryptoPRAND                                
20004f24  ctrlToHostEnable                           
20004cb9  curTxPowerVal                              
20004fa0  data_Gx                                    
20004fa4  data_Gy                                    
20004f50  data_a                                     
20004fa8  data_b                                     
20004f48  data_p                                     
20004f4c  data_r                                     
20004ed0  deviceFeatureSet                           
000106ec  deviceNameUUID                             
20004edc  dtmInfo                                    
20004514  eccDrvTblPtr                               
200044dc  eccParams                                  
00010708  extReportRefUUID                           
20004cbb  fastTxRespTime                             
20004fcc  fwInfoCmd                                  
0000dec7  gapAddAddrAdj                              
20004324  gapAppTaskID                               
20004327  gapAutoAdvPrivateAddrChange                
20004768  gapBond_lruBondList                        
20004719  gapBond_removeLRUBond                      
0000e079  gapClrState                                
20004326  gapDeviceAddrMode                          
0000e01b  gapFindADType                              
0000e7e5  gapFreeEstLink                             
0000df83  gapGetDevAddress                           
0000df7d  gapGetDevAddressMode                       
0000df55  gapGetSRK                                  
0000df5b  gapGetSignCounter                          
0000deeb  gapHost2CtrlOwnAddrType                    
0000df63  gapIncSignCounter                          
0000dff9  gapIsAdvertising                           
0000dffd  gapIsScanning                              
0000e915  gapPairingCompleteCB                       
0000e8ad  gapPasskeyNeededCB                         
20004328  gapPrivateAddrChangeTimeout                
0000e4b1  gapProcessConnectionCompleteEvt            
0000e58b  gapProcessDisconnectCompleteEvt            
0000de99  gapProcessNewAddr                          
0000def5  gapProcessRandomAddrComplete               
0000e55f  gapProcessRemoteConnParamReqEvt            
20004325  gapProfileRole                             
0000de19  gapReadBD_ADDRStatus                       
0000de55  gapReadBufSizeCmdStatus                    
0000f461  gapRegisterCentral                         
0000f467  gapRegisterPeripheral                      
0000ea53  gapRegisterPeripheralConn                  
0000e801  gapSendBondCompleteEvent                   
0000e671  gapSendLinkUpdateEvent                     
0000e853  gapSendPairingReqEvent                     
0000e46f  gapSendSlaveSecurityReqEvent               
0000f7b4  gapServiceCBs                              
000106bc  gapServiceUUID                             
0000e06f  gapSetState                                
2000416c  gapState                                   
200043c0  gapTaskID                                  
200043c1  gapUnwantedTaskID                          
0000e41d  gapUpdateConnSignCounter                   
0000e007  gapValidADType                             
2000446c  gattAppTaskID                              
000104f1  gattGetPayload                             
0001040b  gattNotifyEvent                            
2000416d  gattNumConns                               
000102df  gattRegisterClient                         
000102d9  gattRegisterServer                         
000104c3  gattSendFlowCtrlEvt                        
000106c0  gattServiceUUID                            
00010461  gattStartTimer                             
00010471  gattStopTimer                              
2000416e  gattTaskID                                 
20004650  halAssertCback                             
000199bd  halAssertHandler                           
000199c1  halAssertHandlerExt                        
000199bf  halAssertSpinlock                          
200042a9  hciExtTaskID                               
2000429e  hciGapTaskID                               
00015225  hciInitEventMasks                          
2000429f  hciL2capTaskID                             
20004f28  hciPTMenabled                              
200042a8  hciSmpTaskID                               
2000429c  hciTaskID                                  
2000429d  hciTestTaskID                              
20004f58  inPointX                                   
20004f5c  inPointY                                   
20004f54  inScalar                                   
000106cc  includeUUID                                
20004db0  initCmd                                    
20004b94  initDataEntry                              
20004bcc  initDataQueue                              
20004e58  initInfo                                   
20004eb8  initOutput                                 
20004cf0  initParam                                  
0001cb0c  initPktSuffix                              
00012115  l2capAllocConnChannel                      
00011fb5  l2capBuildInfoReq                          
00011f43  l2capBuildParamUpdateReq                   
20004484  l2capChannels                              
00012211  l2capDisconnectAllChannels                 
00011dc5  l2capEncapSendData                         
00012175  l2capFindLocalId                           
200041d0  l2capFixedChannels                         
00012167  l2capFreeChannel                           
0001220f  l2capHandleRxError                         
20004200  l2capId                                    
2000446e  l2capMtuSize                               
00012083  l2capNotifyData                            
000120c7  l2capNotifySignal                          
20004481  l2capNumChannels                           
20004482  l2capNumDataPkts                           
00011f03  l2capParseCmdReject                        
00012023  l2capParseInfoRsp                          
00011e6f  l2capParsePacket                           
00011fab  l2capParseParamUpdateRsp                   
00011c49  l2capParseSignalHdr                        
00011cc1  l2capSendCmd                               
00011d57  l2capSendPkt                               
00011c5d  l2capSendReq                               
0001219f  l2capStartTimer                            
000121b3  l2capStopTimer                             
00011d31  l2capStoreFCPkt                            
20004480  l2capTaskID                                
2000464d  legacyMode                                 
20004204  linkDBNumConns                             
00012341  linkDB_Add                                 
00012523  linkDB_Authen                              
00012443  linkDB_Find                                
0001246d  linkDB_FindFirst                           
00012403  linkDB_GetInfo                             
000122d5  linkDB_Init                                
00012517  linkDB_MTU                                 
000124cd  linkDB_NumActive                           
000124f5  linkDB_NumConns                            
0001257f  linkDB_PerformFunc                         
00012323  linkDB_Register                            
000123a7  linkDB_Remove                              
000124c1  linkDB_Role                                
000125cd  linkDB_SecurityModeSCOnly                  
0001249f  linkDB_State                               
000123db  linkDB_Update                              
000124fb  linkDB_UpdateMTU                           
000125ab  linkDB_reportStatusChange                  
00018667  llActiveTask                               
1000cd51  llAdv_TaskAbort                            
00015d8b  llAdv_TaskConnect                          
00015cc7  llAdv_TaskEnd                              
00016701  llAlignToNextEvent                         
0001610f  llAllocConnId                              
000185eb  llAllocTask                                
100082f1  llAtLeastTwoChans                          
1000d94d  llCalcScaFactor                            
1000c1b5  llCheckForLstoDuringSL                     
00014fd7  llCheckRxBuffers                           
000168c1  llCheckWhiteListUsage                      
100072e9  llClearRfInts                              
000165d3  llCombinePDU                               
0001cb1c  llConfigTable                              
00016373  llConnCleanup                              
10008631  llConnTerminate                            
20004518  llConnectionExt                            
20004cb0  llConns                                    
10008741  llConvertCtrlProcTimeoutToEvent            
10008721  llConvertLstoToEvent                       
00014fa9  llCreateRxBuffer                           
10008985  llDataQEmpty                               
10008965  llDataQFull                                
0001644d  llDequeueCtrlPkt                           
10008921  llDequeueDataQ                             
00015c65  llDirAdv_TaskEnd                           
100072e5  llDisableRfInts                            
100072ed  llEnableRfInts                             
100080bd  llEnqueueCtrlPkt                           
10008889  llEnqueueDataQ                             
100088b5  llEnqueueHeadDataQ                         
1000d795  llEqAlreadyValidAddr                       
1000d6e5  llEqSynchWord                              
1000d709  llEqualBytes                               
10008719  llEventDelta                               
100086f1  llEventInRange                             
1000a939  llFindNextSecTask                          
1000a895  llFindStartType                            
00016571  llFragmentPDU                              
1000abed  llFreeTask                                 
100086b9  llGenerateCRC                              
1000d695  llGenerateValidAccessAddr                  
1000aca9  llGetActiveTasks                           
1000d4ad  llGetAdvChanPDU                            
1000ac3d  llGetCurrentTask                           
000185ab  llGetCurrentTime                           
00016505  llGetMinCI                                 
000164b5  llGetNextConn                              
00016915  llGetNextDataChan                          
1000ace1  llGetNumTasks                              
1000b009  llGetNumTxDataEntries                      
0001869d  llGetTask                                  
00018645  llGetTaskState                             
000168ad  llGetTxPower                               
1000d6b1  llGtSixConsecZerosOrOnes                   
1000d731  llGtTwentyFourTransitions                  
00016b1d  llHaltRadio                                
00016c27  llHardwareError                            
0001624d  llInitFeatureSet                           
000185a9  llInitRAT                                  
1000d761  llLtTwoChangesInLastSixBits                
100089f1  llMemCopyDst                               
100089d9  llMemCopySrc                               
1000afa1  llMoveTempTxDataEntries                    
00016ae9  llOctets2Time                              
1000d6f5  llOneBitSynchWordDiffer                    
1000adb1  llPatchCM0                                 
10008665  llPendingUpdateParam                       
000168d5  llProcessChanMap                           
100072f1  llProcessPostRfOps                         
00014c81  llProcessSlaveControlPacket                
00018bd1  llProcessSlaveControlProcedures            
00016309  llProcessTxData                            
0001507d  llRatChanCBack_A                           
1000ae41  llRatChanCBack_B                           
1000ae45  llRatChanCBack_C                           
1000ae49  llRatChanCBack_D                           
10008461  llReleaseAllConnId                         
10008429  llReleaseConnId                            
00016489  llReplaceCtrlPkt                           
00014ffd  llReplaceRxBuffers                         
00016c25  llResetRadio                               
000167f5  llRfInit                                   
000167ad  llRfSetup                                  
00016b3d  llRfStartFS                                
000186cd  llScheduleTask                             
1000a335  llScheduler                                
000185b9  llSchedulerInit                            
000169af  llSendReject                               
100072e1  llSetFreqTune                              
00016961  llSetNextDataChan                          
00016863  llSetTxPower                               
100073e5  llSetupAdv                                 
1000aeb1  llSetupAdvDataEntryQueue                   
00014f23  llSetupConnRxDataEntryQueue                
10007aed  llSetupEncReq                              
10007b95  llSetupEncRsp                              
00016265  llSetupFeatureSetRsp                       
100077b5  llSetupInit                                
1000ae95  llSetupInitDataEntryQueue                  
00018933  llSetupNextSlaveEvent                      
10007cfd  llSetupPauseEncReq                         
10007d55  llSetupPauseEncRsp                         
00015049  llSetupRATChanCompare                      
10007df5  llSetupRejectInd                           
0001502f  llSetupRfHal                               
100075fd  llSetupScan                                
1000ae4d  llSetupScanDataEntryQueue                  
000162c7  llSetupStartEncReq                         
10007ca9  llSetupStartEncRsp                         
000169cd  llSetupTermInd                             
10008069  llSetupUnknownRsp                          
100079c9  llSetupUpdateParamReq                      
10007f29  llSetupVersionIndReq                       
00018761  llSlave_TaskEnd                            
20004cb8  llState                                    
1000d9e1  llTaskError                                
20004ef4  llTaskList                                 
00016abb  llTime2Octets                              
1000d8c9  llTimeCompare                              
1000d8f5  llTimeDelta                                
200044b0  llUserConfig                               
00016c2b  llValidateConnParams                       
0001608d  llVerifyConnParamReqParams                 
00016a3f  llWriteTxData                              
0001cb4c  ll_buildRevision                           
2000423c  localEccKeys                               
10016551  mADD                                       
10015bd5  mINVK                                      
10015f81  mMULT                                      
10016749  mOUT                                       
10015a9d  mSET                                       
1001664d  mSUB                                       
20004cbc  maxNumConns                                
200044d2  maxNumTxDataBufs                           
200044d0  maxPduSize                                 
0001cb14  maxPktsPerEvt                              
20004c85  maxTxPwrForDTM                             
0001b159  memcmp                                     
00019473  memcpy                                     
00019517  memset                                     
20004f14  mstCmd                                     
20004f18  mstParam                                   
20004cba  numComplPkts                               
20004c88  numComplPktsFlush                          
20004c87  numComplPktsLimit                          
20004f26  numHostBufs                                
20004c8b  numTxDataBufs                              
20004c86  onePktPerEvt                               
00019601  osalAddTimer                               
000195e5  osalFindTimer                              
00019689  osalTimerUpdate                            
0001a0b5  osal_CbTimerProcessEvent                   
0001a221  osal_CbTimerStart                          
0001a147  osal_CbTimerStop                           
00019ad7  osal_bm_adjust_header                      
00019aff  osal_bm_alloc                              
00019b31  osal_bm_free                               
0001a021  osal_buffer_uint32                         
00019fef  osal_build_uint32                          
00019e87  osal_clear_event                           
20004655  osal_entity                                
20004660  osal_eventloop_hook                        
00019645  osal_get_timeoutEx                         
00019bf9  osal_isbufset                              
200042f0  osal_last_timestamp                        
2000466c  osal_max_msecs                             
0001bedd  osal_mem_alloc                             
0001beff  osal_mem_free                              
00019c13  osal_memcmp                                
00019b81  osal_memcpy                                
00019fd3  osal_memdup                                
00019b7d  osal_memset                                
00019b99  osal_msg_allocate                          
00019bc3  osal_msg_deallocate                        
00019c33  osal_msg_receive                           
00019d69  osal_msg_send                              
00019893  osal_next_timeout                          
0001be4d  osal_pwrmgr_task_state                     
2000465c  osal_qHead                                 
00019aa5  osal_rand                                  
00019cbb  osal_revmemcpy                             
00019bbd  osal_self                                  
00019f45  osal_service_entry                         
00019df1  osal_set_event                             
0001a5a9  osal_snv_compact                           
0001a297  osal_snv_read                              
0001a4b5  osal_snv_write                             
0001985d  osal_start_reload_timer                    
000197f3  osal_start_timerEx                         
0001982d  osal_stop_timerEx                          
00019fcf  osal_strlen                                
20004664  osal_syncHandle                            
20004668  osal_tickperiod                            
00019767  osal_timer_refTimeUpdate                   
20004f60  outPointX                                  
20004f64  outPointY                                  
20004c6c  ownPublicAddr                              
20004c74  ownRandomAddr                              
20004c7c  ownSavedPublicAddr                         
20004398  pAuthLink                                  
2000428c  pBleEvtMask                                
20004394  pEstLink                                   
20004168  pGapAdvertState                            
20004164  pGapDiscReq                                
20004f00  pHciEvtMask                                
20004294  pHciEvtMask2                               
20004280  pPairingParams                             
20004ffc  pSspAesEncrypt_Sw                          
20004c9c  peerInfo                                   
000106fc  periConnParamUUID                          
000106f4  periPrivacyFlagUUID                        
20004174  pfnBondMgrCBs                              
2000439c  pfnCentralConnCBs                          
200043c4  pfnPeripheralCBs                           
20004170  pfnPeripheralConnCBs                       
20004284  pfnResponderCBs                            
20004cbe  postRfOperations                           
000106c4  primaryServiceUUID                         
20004702  pwrmgr_attribute                           
20004700  pwrmgr_initialized                         
20004fac  ratChanInfo                                
000106f8  reconnectAddrUUID                          
0001070c  reportRefUUID                              
200043cf  reqTaskId                                  
00018f61  rfCallback                                 
20004c94  rfCfgAdiVal                                
0001cafc  rfCfgVal                                   
200044d8  rfCmdHandle                                
20004510  rfDrvTblPtr                                
200042a0  rfEvent                                    
200044d1  rfFeModeBias                               
2000450c  rfHandle                                   
20004528  rfMode                                     
20004588  rfObject                                   
0001cb18  rfOpLoc                                    
00018f55  rfPUpCallback                              
20004538  rfParams                                   
2000454c  rfSetup                                    
1000dffc  romRev                                     
200042b1  rspBuf                                     
20004cc0  rssiCorrection                             
20004f0c  rxDataQ                                    
20004c8a  rxFifoFlowCtrl                             
20004e40  rxModemTestCmd                             
0001cb00  rxPktSuffix                                
20004f10  rxRingBuf                                  
20004ec4  rxTestOut                                  
20004e84  rxTestParam                                
20004df8  scanCmd                                    
200048fc  scanDataEntry                              
200049dc  scanDataQueue                              
20004d94  scanInfo                                   
20004e10  scanOutput                                 
20004d14  scanParam                                  
0001cb08  scanPktSuffix                              
20004524  sclkSrc                                    
000106c8  secondaryServiceUUID                       
0000e5ed  sendEstLinkEvent                           
000106e0  servCharCfgUUID                            
2000417c  serverInfoTbl                              
00010700  serviceChangedUUID                         
20004c89  slOverride                                 
20004390  slaveConnHandle                            
20004388  slaveUpdateReq                             
20004c96  sleepDelay                                 
20004de0  slvCmd                                     
20004d38  slvParam                                   
0001288d  smAuthReqToUint8                           
00013c29  smDetermineKeySize                         
00013bf3  smEndPairing                               
000135cf  smF5Wrapper                                
0001351d  smGenerateConfirm                          
00013659  smGenerateDHKeyCheck                       
000134ed  smGeneratePairingReqRsp                    
00012863  smGenerateRandBuf                          
0001353d  smGenerateRandMsg                          
000137b3  smGetECCKeys                               
000131c5  smLinkCheck                                
000133af  smNextPairingState                         
000138ab  smOobSCAuthentication                      
00013b33  smPairingSendEncInfo                       
00013b6b  smPairingSendIdentityAddrInfo              
00013b61  smPairingSendIdentityInfo                  
00013b39  smPairingSendMasterID                      
00013b8f  smPairingSendSigningInfo                   
000131f5  smProcessDataMsg                           
000132ff  smProcessEncryptChange                     
0001347b  smProcessPairingReq                        
000131b5  smRegisterInitiator                        
000131bd  smRegisterResponder                        
00013913  smSavePairInfo                             
00013559  smSaveRemotePublicKeys                     
00013797  smSendDHKeyCheck                           
000132e3  smSendFailAndEnd                           
00013cc9  smSendFailureEvt                           
00013581  smSendPublicKeys                           
00014c35  smSendSMMsg                                
000134d1  smStartEncryption                          
000126a9  smStartRspTimer                            
000126c7  smStopRspTimer                             
200044a0  smTaskID                                   
000131ef  smTimedOut                                 
000128bb  smUint8ToAuthReq                           
000136e7  sm_allocateSCParameters                    
000133e1  sm_c1                                      
00012755  sm_c1new                                   
0001382f  sm_computeDHKey                            
000126d3  sm_d1                                      
0001272b  sm_dm                                      
00012c5b  sm_f4                                      
00012d1b  sm_f5                                      
00012e75  sm_f6                                      
00012f5d  sm_g2                                      
00012823  sm_s1                                      
00014a69  smpBuildEncInfo                            
00014aeb  smpBuildIdentityAddrInfo                   
00014ad9  smpBuildIdentityInfo                       
00014c09  smpBuildKeypressNoti                       
00014a91  smpBuildMasterID                           
000149db  smpBuildPairingConfirm                     
00014be1  smpBuildPairingDHKeyCheck                  
00014a3b  smpBuildPairingFailed                      
00014b9b  smpBuildPairingPublicKey                   
00014a03  smpBuildPairingRandom                      
00014851  smpBuildPairingReq                         
0001485f  smpBuildPairingReqRsp                      
00014859  smpBuildPairingRsp                         
00014b63  smpBuildSecurityReq                        
00014b3b  smpBuildSigningInfo                        
00014a7b  smpParseEncInfo                            
00014b1f  smpParseIdentityAddrInfo                   
00014b09  smpParseIdentityInfo                       
00014c21  smpParseKeypressNoti                       
00014ab5  smpParseMasterID                           
000149ed  smpParsePairingConfirm                     
00014bf5  smpParsePairingDHKeyCheck                  
00014a4b  smpParsePairingFailed                      
00014bb3  smpParsePairingPublicKey                   
00014a25  smpParsePairingRandom                      
00014907  smpParsePairingReq                         
00014b7f  smpParseSecurityReq                        
00014b4d  smpParseSigningInfo                        
10016d29  sspAesDecrypt_Sw                           
10016af5  sspAesEncryptBasic_Sw                      
10016a99  sspAesEncryptKeyExp_Sw                     
10016979  sspAesEncrypt_Sw                           
10016985  sspKeyExpansion_Sw                         
10016975  ssp_KeyInit_Sw                             
0000d001  startup_entry                              
0001bf59  strlen                                     
00015c20  supportedCmdsTable                         
20004cc4  taskEndAction                              
20004f0a  taskEndStatus                              
0001c3e8  tasksArr                                   
20004304  tasksEvents                                
200042ec  timerHead                                  
2000451c  trngDrvTblPtr                              
20004e28  trxTestCmd                                 
20004f1c  txDataQ                                    
20004d78  txModemTestCmd                             
0001caf0  txPowerTable                               
0001caf4  txPwrTbl                                   
20004f20  txTestOut                                  
20004ea8  txTestParam                                
00010704  validRangeUUID                             
20004c8c  verInfo                                    
20004f40  win                                        
0001cb10  wlSize                                     
20004a8c  wlTable                                    
20004b10  wlTableScan                                
20004f44  workzone                                   
10015d19  zADD                                       
10015eb5  zADD32                                     
10015de9  zMACC32                                    
10015f0d  zMULT32                                    
10015bcd  zSET                                       
10015d5d  zSUB                                       
10015e69  zSUB32                                     


GLOBAL SYMBOLS: SORTED BY Symbol Address 

address   name                                       
-------   ----                                       
00005721  __checksum_value                           
0000d000  __TI_static_base__                         
0000d001  startup_entry                              
0000d4f5  ATT_RegisterServer                         
0000d4fb  ATT_ErrorRsp                               
0000d50d  ATT_ExchangeMTURsp                         
0000d525  ATT_FindInfoRsp                            
0000d555  ATT_FindByTypeValueRsp                     
0000d575  ATT_ReadByTypeRsp                          
0000d5a1  ATT_ReadRsp                                
0000d5bd  ATT_ReadBlobRsp                            
0000d5d9  ATT_ReadMultiRsp                           
0000d5f7  ATT_ReadByGrpTypeRsp                       
0000d619  ATT_WriteRsp                               
0000d625  ATT_PrepareWriteRsp                        
0000d63f  ATT_ExecuteWriteRsp                        
0000d64b  ATT_HandleValueNoti                        
0000d661  ATT_HandleValueInd                         
0000d6e1  ATT_ParsePacket                            
0000d73b  ATT_BuildErrorRsp                          
0000d74d  ATT_ParseErrorRsp                          
0000d76b  ATT_BuildExchangeMTUReq                    
0000d76d  ATT_ParseExchangeMTUReq                    
0000d777  ATT_BuildExchangeMTURsp                    
0000d787  ATT_ParseExchangeMTURsp                    
0000d79d  ATT_BuildFindInfoReq                       
0000d79f  ATT_ParseFindInfoReq                       
0000d7a9  ATT_BuildFindInfoRsp                       
0000d7c1  ATT_ParseFindInfoRsp                       
0000d805  ATT_BuildFindByTypeValueReq                
0000d81f  ATT_ParseFindByTypeValueReq                
0000d861  ATT_BuildFindByTypeValueRsp                
0000d869  ATT_ParseFindByTypeValueRsp                
0000d883  ATT_BuildReadByTypeReq                     
0000d8b3  ATT_ParseReadByTypeReq                     
0000d8ef  ATT_BuildReadByTypeRsp                     
0000d8f1  ATT_ParseReadByTypeRsp                     
0000d913  ATT_BuildReadReq                           
0000d915  ATT_ParseReadReq                           
0000d92f  ATT_BuildReadRsp                           
0000d933  ATT_ParseReadRsp                           
0000d935  ATT_ParseWriteReq                          
0000d95f  ATT_BuildWriteReq                          
0000d961  ATT_ParseWriteRsp                          
0000d96b  ATT_BuildReadBlobReq                       
0000d985  ATT_ParseReadBlobReq                       
0000d9a9  ATT_BuildReadBlobRsp                       
0000d9ad  ATT_ParseReadBlobRsp                       
0000d9bb  ATT_BuildReadMultiReq                      
0000d9c3  ATT_ParseReadMultiReq                      
0000d9e3  ATT_BuildReadMultiRsp                      
0000d9e7  ATT_ParseReadMultiRsp                      
0000d9e9  ATT_BuildReadByGrpTypeRsp                  
0000d9fb  ATT_ParseReadByGrpTypeRsp                  
0000da27  ATT_BuildPrepareWriteReq                   
0000da29  ATT_ParsePrepareWriteReq                   
0000da51  ATT_BuildPrepareWriteRsp                   
0000da6f  ATT_ParsePrepareWriteRsp                   
0000daa1  ATT_BuildExecuteWriteReq                   
0000daa9  ATT_ParseExecuteWriteReq                   
0000dabb  ATT_ParseExecuteWriteRsp                   
0000dac5  ATT_BuildHandleValueInd                    
0000dad9  ATT_ParseHandleValueInd                    
0000db05  ATT_ParseHandleValueCfm                    
0000db0f  attSendMsg                                 
0000db95  ATT_CompareUUID                            
0000dbe5  ATT_ConvertUUIDto128                       
0000dc0d  ATT_ConvertUUIDto16                        
0000dc4b  ATT_UpdateMTU                              
0000dc75  ATT_GetMTU                                 
0000dc95  ATT_SetParamValue                          
0000dc97  ATT_GetParamValue                          
0000dc9c  btBaseUUID                                 
0000dcad  GAP_SetParamValue                          
0000dcc7  GAP_GetParamValue                          
0000dcd9  GAP_ParamsInit                             
0000dd01  GAP_SecParamsInit                          
0000dd1b  GAP_PrivacyInit                            
0000dd3d  GAP_GetIRK                                 
0000dd43  GAP_ConfigDeviceAddr                       
0000de19  gapReadBD_ADDRStatus                       
0000de55  gapReadBufSizeCmdStatus                    
0000de99  gapProcessNewAddr                          
0000dec7  gapAddAddrAdj                              
0000deeb  gapHost2CtrlOwnAddrType                    
0000def5  gapProcessRandomAddrComplete               
0000df55  gapGetSRK                                  
0000df5b  gapGetSignCounter                          
0000df63  gapIncSignCounter                          
0000df7d  gapGetDevAddressMode                       
0000df83  gapGetDevAddress                           
0000dff5  GAP_ResolvePrivateAddr                     
0000dff9  gapIsAdvertising                           
0000dffd  gapIsScanning                              
0000e007  gapValidADType                             
0000e01b  gapFindADType                              
0000e06f  gapSetState                                
0000e079  gapClrState                                
0000e0a5  GAP_TerminateLinkReq                       
0000e0ea  __checksum_value_CommonROM                 
0000e11f  GAP_UpdateLinkParamReq                     
0000e187  GAP_UpdateLinkParamReqReply                
0000e219  GAP_Signable                               
0000e261  GAP_Authenticate                           
0000e2fd  GAP_TerminateAuth                          
0000e31b  GAP_PasskeyUpdate                          
0000e34f  GAP_PasscodeUpdate                         
0000e39b  GAP_Bond                                   
0000e41d  gapUpdateConnSignCounter                   
0000e46f  gapSendSlaveSecurityReqEvent               
0000e4b1  gapProcessConnectionCompleteEvt            
0000e55f  gapProcessRemoteConnParamReqEvt            
0000e58b  gapProcessDisconnectCompleteEvt            
0000e5ed  sendEstLinkEvent                           
0000e671  gapSendLinkUpdateEvent                     
0000e7e5  gapFreeEstLink                             
0000e801  gapSendBondCompleteEvent                   
0000e853  gapSendPairingReqEvent                     
0000e8ad  gapPasskeyNeededCB                         
0000e915  gapPairingCompleteCB                       
0000ea53  gapRegisterPeripheralConn                  
0000ea75  GAP_MakeDiscoverable                       
0000eb07  GAP_UpdateAdvertisingData                  
0000eb6f  GAP_EndDiscoverable                        
0000ebbb  GAP_SetAdvToken                            
0000ec65  GAP_GetAdvToken                            
0000ec7b  GAP_RemoveAdvToken                         
0000ecc5  GAP_UpdateAdvTokens                        
0000ecd9  GAP_PeriDevMgrInit                         
0000f099  GAP_SendSlaveSecurityRequest               
0000f0d3  GAP_PeriConnRegister                       
0000f1a9  GAP_RegisterForMsgs                        
0000f1af  GAP_Init                                   
0000f1c5  GAP_ProcessEvent                           
0000f28d  GAP_NumActiveConnections                   
0000f461  gapRegisterCentral                         
0000f467  gapRegisterPeripheral                      
0000f46d  GAP_RegisterBondMgrCBs                     
0000f495  GGS_SetParameter                           
0000f515  GGS_GetParameter                           
0000f54b  GGS_SetParamValue                          
0000f54d  GGS_GetParamValue                          
0000f551  GGS_AddService                             
0000f569  GGS_DelService                             
0000f57d  GGS_RegisterAppCBs                         
0000f7b4  gapServiceCBs                              
0000f7c1  GATT_InitServer                            
0000f829  GATT_RegisterService                       
0000f8c5  GATT_DeregisterService                     
0000f905  GATT_RegisterForReq                        
0000f90d  GATT_VerifyReadPermissions                 
0000f943  GATT_VerifyWritePermissions                
0000f997  GATT_ServiceChangedInd                     
0000fa09  GATT_FindHandleUUID                        
0000fa67  GATT_FindHandle                            
0000fab3  GATT_FindNextAttr                          
0000fb37  GATT_ServiceNumAttrs                       
0000fb43  GATT_ServiceEncKeySize                     
0000fb53  GATT_SendRsp                               
0000fc07  GATT_Indication                            
0000fc73  GATT_Notification                          
00010265  GATT_GetNextHandle                         
000102d5  GATT_SetNextHandle                         
000102d7  __aeabi_idiv0                              
000102d7  __aeabi_ldiv0                              
000102d9  gattRegisterServer                         
000102df  gattRegisterClient                         
000102e5  GATT_RegisterForMsgs                       
000102eb  GATT_SetHostToAppFlowCtrl                  
000102f7  GATT_AppCompletedMsg                       
0001031f  GATT_Init                                  
0001033d  GATT_ProcessEvent                          
0001040b  gattNotifyEvent                            
00010461  gattStartTimer                             
00010471  gattStopTimer                              
00010489  GATT_NotifyEvent                           
0001049d  GATT_UpdateMTU                             
000104c3  gattSendFlowCtrlEvt                        
000104f1  gattGetPayload                             
00010545  GATT_bm_alloc                              
000105bd  GATT_bm_free                               
000105d1  GATT_FindUUIDRec                           
000106bc  gapServiceUUID                             
000106c0  gattServiceUUID                            
000106c4  primaryServiceUUID                         
000106c8  secondaryServiceUUID                       
000106cc  includeUUID                                
000106d0  characterUUID                              
000106d4  charExtPropsUUID                           
000106d8  charUserDescUUID                           
000106dc  clientCharCfgUUID                          
000106e0  servCharCfgUUID                            
000106e4  charFormatUUID                             
000106e8  charAggFormatUUID                          
000106ec  deviceNameUUID                             
000106f0  appearanceUUID                             
000106f4  periPrivacyFlagUUID                        
000106f8  reconnectAddrUUID                          
000106fc  periConnParamUUID                          
00010700  serviceChangedUUID                         
00010704  validRangeUUID                             
00010708  extReportRefUUID                           
0001070c  reportRefUUID                              
00010711  GATTServApp_RegisterForMsg                 
00010719  GATTServApp_Init                           
00010767  GATTServApp_ProcessEvent                   
0001079f  GATTServApp_RegisterService                
000107f5  GATTServApp_DeregisterService              
00010839  GATTServApp_SetParameter                   
00010897  GATTServApp_GetParameter                   
000108ab  GATTServApp_ReadRsp                        
00010a23  GATTServApp_AddService                     
00010a39  GATTServApp_DelService                     
000114a5  GATTServApp_ReadAttr                       
0001169d  GATTServApp_WriteAttr                      
00011725  GATTServApp_SetParamValue                  
00011727  GATTServApp_GetParamValue                  
0001172b  GATTServApp_UpdateCharCfg                  
000117b9  GATTServApp_SendCCCUpdatedEvent            
00011809  L2CAP_RegisterApp                          
00011833  L2CAP_SendData                             
000118a3  L2CAP_CmdReject                            
000118b1  L2CAP_InfoReq                              
000118c9  L2CAP_ConnParamUpdateReq                   
000118ff  L2CAP_ConnParamUpdateRsp                   
00011911  L2CAP_SetControllerToHostFlowCtrl          
0001194b  L2CAP_HostNumCompletedPkts                 
00011961  L2CAP_SetBufSize                           
0001196d  L2CAP_GetMTU                               
00011995  L2CAP_SetUserConfig                        
00011999  L2CAP_Init                                 
000119fb  L2CAP_ProcessEvent                         
00011b09  L2CAP_RegisterFlowCtrlTask                 
00011c49  l2capParseSignalHdr                        
00011c5d  l2capSendReq                               
00011cc1  l2capSendCmd                               
00011d31  l2capStoreFCPkt                            
00011d57  l2capSendPkt                               
00011dc5  l2capEncapSendData                         
00011e6f  l2capParsePacket                           
00011ec5  L2CAP_BuildCmdReject                       
00011f03  l2capParseCmdReject                        
00011f43  l2capBuildParamUpdateReq                   
00011f6f  L2CAP_ParseParamUpdateReq                  
00011fa9  L2CAP_BuildParamUpdateRsp                  
00011fab  l2capParseParamUpdateRsp                   
00011fb5  l2capBuildInfoReq                          
00011fc5  L2CAP_ParseInfoReq                         
00011fdd  L2CAP_BuildInfoRsp                         
00012023  l2capParseInfoRsp                          
00012083  l2capNotifyData                            
000120c7  l2capNotifySignal                          
00012115  l2capAllocConnChannel                      
00012167  l2capFreeChannel                           
00012175  l2capFindLocalId                           
0001219f  l2capStartTimer                            
000121b3  l2capStopTimer                             
0001220f  l2capHandleRxError                         
00012211  l2capDisconnectAllChannels                 
000122b5  L2CAP_bm_alloc                             
000122cf  L2CAP_SetParamValue                        
000122d1  L2CAP_GetParamValue                        
000122d5  linkDB_Init                                
00012323  linkDB_Register                            
00012341  linkDB_Add                                 
000123a7  linkDB_Remove                              
000123db  linkDB_Update                              
00012403  linkDB_GetInfo                             
00012443  linkDB_Find                                
0001246d  linkDB_FindFirst                           
0001249f  linkDB_State                               
000124c1  linkDB_Role                                
000124cd  linkDB_NumActive                           
000124f5  linkDB_NumConns                            
000124fb  linkDB_UpdateMTU                           
00012517  linkDB_MTU                                 
00012523  linkDB_Authen                              
0001257f  linkDB_PerformFunc                         
000125ab  linkDB_reportStatusChange                  
000125cd  linkDB_SecurityModeSCOnly                  
000125dd  SM_CalcRandomAddr                          
00012615  SM_ResolveRandomAddrs                      
0001266b  SM_Encrypt                                 
000126a9  smStartRspTimer                            
000126c7  smStopRspTimer                             
000126d3  sm_d1                                      
0001272b  sm_dm                                      
00012755  sm_c1new                                   
00012823  sm_s1                                      
00012863  smGenerateRandBuf                          
0001288d  smAuthReqToUint8                           
000128bb  smUint8ToAuthReq                           
00012903  SM_GenerateAuthenSig                       
0001299d  SM_VerifyAuthenSig                         
00012c5b  sm_f4                                      
00012d1b  sm_f5                                      
00012e75  sm_f6                                      
00012f5d  sm_g2                                      
00013038  const_Rb                                   
00013049  SM_StartPairing                            
000130d7  SM_PasskeyUpdate                           
000131b5  smRegisterInitiator                        
000131bd  smRegisterResponder                        
000131c5  smLinkCheck                                
000131ef  smTimedOut                                 
000131f5  smProcessDataMsg                           
000132e3  smSendFailAndEnd                           
000132ff  smProcessEncryptChange                     
000133af  smNextPairingState                         
000133e1  sm_c1                                      
0001347b  smProcessPairingReq                        
000134d1  smStartEncryption                          
000134ed  smGeneratePairingReqRsp                    
0001351d  smGenerateConfirm                          
0001353d  smGenerateRandMsg                          
00013559  smSaveRemotePublicKeys                     
00013581  smSendPublicKeys                           
000135cf  smF5Wrapper                                
00013659  smGenerateDHKeyCheck                       
000136e7  sm_allocateSCParameters                    
00013797  smSendDHKeyCheck                           
000137b3  smGetECCKeys                               
0001382f  sm_computeDHKey                            
0001386f  SM_SetECCRegenerationCount                 
000138ab  smOobSCAuthentication                      
00013913  smSavePairInfo                             
00013b33  smPairingSendEncInfo                       
00013b39  smPairingSendMasterID                      
00013b61  smPairingSendIdentityInfo                  
00013b6b  smPairingSendIdentityAddrInfo              
00013b8f  smPairingSendSigningInfo                   
00013bf3  smEndPairing                               
00013c29  smDetermineKeySize                         
00013cc9  smSendFailureEvt                           
00013d11  SM_ResponderInit                           
0001455d  SM_Init                                    
00014581  SM_ProcessEvent                            
00014777  SM_RegisterTask                            
0001477d  SM_GetEccKeys                              
000147bb  SM_GetDHKey                                
00014841  SM_GetScConfirmOob                         
00014851  smpBuildPairingReq                         
00014859  smpBuildPairingRsp                         
0001485f  smpBuildPairingReqRsp                      
00014907  smpParsePairingReq                         
000149db  smpBuildPairingConfirm                     
000149ed  smpParsePairingConfirm                     
00014a03  smpBuildPairingRandom                      
00014a25  smpParsePairingRandom                      
00014a3b  smpBuildPairingFailed                      
00014a4b  smpParsePairingFailed                      
00014a69  smpBuildEncInfo                            
00014a7b  smpParseEncInfo                            
00014a91  smpBuildMasterID                           
00014ab5  smpParseMasterID                           
00014ad9  smpBuildIdentityInfo                       
00014aeb  smpBuildIdentityAddrInfo                   
00014b09  smpParseIdentityInfo                       
00014b1f  smpParseIdentityAddrInfo                   
00014b3b  smpBuildSigningInfo                        
00014b4d  smpParseSigningInfo                        
00014b63  smpBuildSecurityReq                        
00014b7f  smpParseSecurityReq                        
00014b9b  smpBuildPairingPublicKey                   
00014bb3  smpParsePairingPublicKey                   
00014be1  smpBuildPairingDHKeyCheck                  
00014bf5  smpParsePairingDHKeyCheck                  
00014c09  smpBuildKeypressNoti                       
00014c21  smpParseKeypressNoti                       
00014c35  smSendSMMsg                                
00014c81  llProcessSlaveControlPacket                
00014f23  llSetupConnRxDataEntryQueue                
00014fa9  llCreateRxBuffer                           
00014fd7  llCheckRxBuffers                           
00014ffd  llReplaceRxBuffers                         
0001502f  llSetupRfHal                               
00015049  llSetupRATChanCompare                      
0001507d  llRatChanCBack_A                           
0001507f  RFHAL_InitRfHal                            
000150e3  RFHAL_AddTxDataEntry                       
0001517d  LL_RxDataCompleteCback                     
00015225  hciInitEventMasks                          
0001526b  LL_ConnParamUpdateCback                    
000152f9  LL_ReadRemoteUsedFeaturesCompleteCback     
00015365  HCI_NumOfCompletedPacketsEvent             
0001543d  LL_AuthPayloadTimeoutExpiredCback          
000154a1  LL_ReadLocalP256PublicKeyCompleteEventCback
0001556b  LL_GenerateDHKeyCompleteEventCback         
00015623  LL_EnhancedConnectionCompleteCback         
00015839  HCI_VendorSpecifcCommandCompleteEvent      
00015891  HCI_HardwareErrorEvent                     
0001592d  HCI_ValidConnTimeParams                    
00015969  HCI_ResetCmd                               
0001598b  HCI_ReadLocalSupportedCommandsCmd          
0001599f  HCI_EXT_GetConnInfoCmd                     
00015a2d  HCI_LE_ReadBufSizeCmd                      
00015a5b  HCI_LE_RemoteConnParamReqReplyCmd          
00015a5f  HCI_LE_RemoteConnParamReqNegReplyCmd       
00015a63  HCI_LE_ReadRemoteUsedFeaturesCmd           
00015a8d  HCI_LE_ReadLocalP256PublicKeyCmd           
00015aa1  HCI_LE_GenerateDHKeyCmd                    
00015ab9  HCI_LE_TransmitterTestCmd                  
00015acb  HCI_LE_ReceiverTestCmd                     
00015add  HCI_SetEventMaskPage2Cmd                   
00015b05  HCI_LE_ConnUpdateCmd                       
00015b15  HCI_EXT_ResetSystemCmd                     
00015b3b  HCI_EXT_DelaySleepCmd                      
00015b5f  HCI_EXT_ConnEventNoticeCmd                 
00015b63  HCI_LE_SetEventMaskCmd                     
00015b99  HCI_ReadLocalVersionInfoCmd                
00015bf3  HCI_ReadRssiCmd                            
00015c20  supportedCmdsTable                         
00015c65  llDirAdv_TaskEnd                           
00015cc7  llAdv_TaskEnd                              
00015d8b  llAdv_TaskConnect                          
0001608d  llVerifyConnParamReqParams                 
0001610f  llAllocConnId                              
0001624d  llInitFeatureSet                           
00016265  llSetupFeatureSetRsp                       
000162c7  llSetupStartEncReq                         
00016309  llProcessTxData                            
00016373  llConnCleanup                              
0001644d  llDequeueCtrlPkt                           
00016489  llReplaceCtrlPkt                           
000164b5  llGetNextConn                              
00016505  llGetMinCI                                 
00016571  llFragmentPDU                              
000165d3  llCombinePDU                               
00016701  llAlignToNextEvent                         
000167ad  llRfSetup                                  
000167f5  llRfInit                                   
00016863  llSetTxPower                               
000168ad  llGetTxPower                               
000168c1  llCheckWhiteListUsage                      
000168d5  llProcessChanMap                           
00016915  llGetNextDataChan                          
00016961  llSetNextDataChan                          
000169af  llSendReject                               
000169cd  llSetupTermInd                             
00016a3f  llWriteTxData                              
00016abb  llTime2Octets                              
00016ae9  llOctets2Time                              
00016b1d  llHaltRadio                                
00016b3d  llRfStartFS                                
00016c25  llResetRadio                               
00016c27  llHardwareError                            
00016c2b  llValidateConnParams                       
00016cc1  LL_ENC_Encrypt                             
00016d2f  LL_ENC_Decrypt                             
00017495  LL_Init                                    
0001771d  LL_ProcessEvent                            
00017845  LL_Reset                                   
0001793f  LL_EXT_GetConnInfo                         
000179eb  LL_EncLtkReply                             
00017a31  LL_EncLtkNegReply                          
00017a6d  LL_ReadRemoteUsedFeatures                  
00017abd  LL_EXT_SetLocalSupportedFeatures           
00017b01  LL_EXT_SetTxPower                          
00017b2d  LL_EXT_SetMaxDtmTxPower                    
00017b49  LL_ReadTxPowerLevel                        
00017b87  LL_TxData                                  
00017c41  LL_EXT_ModemHopTestTx                      
00017ce1  LL_EXT_ModemTestTx                         
00017d65  LL_EXT_ModemTestRx                         
00017dfd  LL_EXT_EndModemTest                        
00017e23  LL_DirectTestTxTest                        
00017fa9  LL_DirectTestRxTest                        
0001809d  LL_DirectTestEnd                           
0001813d  LL_SetAdvParam                             
00018255  LL_SetAdvControl                           
0001835b  LL_ReadSupportedStates                     
00018377  LL_GetNumActiveConns                       
00018383  LL_ReadLocalP256PublicKeyCmd               
000183b9  LL_GenerateDHKeyCmd                        
000183f9  LL_ReadRssi                                
00018461  LL_EXT_ConnEventNotice                     
000184a1  LL_EXT_NumComplPktsLimit                   
000184d1  LL_EXT_BuildRevision                       
000184fd  LL_EXT_DisconnectImmed                     
000185a9  llInitRAT                                  
000185ab  llGetCurrentTime                           
000185b9  llSchedulerInit                            
000185eb  llAllocTask                                
00018645  llGetTaskState                             
00018667  llActiveTask                               
0001869d  llGetTask                                  
000186cd  llScheduleTask                             
00018761  llSlave_TaskEnd                            
00018933  llSetupNextSlaveEvent                      
00018bd1  llProcessSlaveControlProcedures            
00018e61  LL_PM_GetRfCoreState                       
00018e65  LL_PM_Enter_AES                            
00018e7b  LL_PM_Exit_AES                             
00018ea5  LL_PM_PowerOffRfCore                       
00018ea7  WL_Clear                                   
00018ecb  WL_GetNumFreeEntries                       
00018ed5  WL_FindEntry                               
00018f17  WL_SetWlIgnore                             
00018f37  WL_ClearIgnoreList                         
00018f55  rfPUpCallback                              
00018f61  rfCallback                                 
00018f8b  LL_DoorbellErrorCback                      
00018f9d  LL_LastCmdDoneCback                        
0001914f  LL_TxDoneCback                             
00019163  LL_TxEntryDoneCback                        
0001917d  LL_RxIgnoredCback                          
0001917f  LL_RxEntryDoneCback                        
0001931d  HCI_Init                                   
0001934f  HCI_ProcessEvent                           
0001938b  HCI_TestAppTaskRegister                    
00019391  HCI_GAPTaskRegister                        
00019397  HCI_L2CAPTaskRegister                      
0001939d  HCI_SMPTaskRegister                        
000193a3  HCI_ExtTaskRegister                        
000193c5  __aeabi_uldivmod                           
0001945b  __aeabi_lmul                               
00019473  __aeabi_memcpy                             
00019473  __aeabi_memcpy4                            
00019473  __aeabi_memcpy8                            
00019473  memcpy                                     
0001950f  __aeabi_memclr                             
0001950f  __aeabi_memclr4                            
0001950f  __aeabi_memclr8                            
00019511  __aeabi_memset                             
00019511  __aeabi_memset4                            
00019511  __aeabi_memset8                            
00019517  memset                                     
00019589  __TI_auto_init_nobinit_nopinit             
000195cd  NOROM_CPUcpsie                             
000195d9  NOROM_CPUcpsid                             
000195e5  osalFindTimer                              
00019601  osalAddTimer                               
00019645  osal_get_timeoutEx                         
00019689  osalTimerUpdate                            
00019767  osal_timer_refTimeUpdate                   
000197f3  osal_start_timerEx                         
0001982d  osal_stop_timerEx                          
0001985d  osal_start_reload_timer                    
00019893  osal_next_timeout                          
000198d9  ECC_initialize                             
0001990d  ROM_Spinlock                               
00019945  HalTRNG_InitTRNG                           
00019973  HalTRNG_GetTRNG                            
000199bd  halAssertHandler                           
000199bf  halAssertSpinlock                          
000199c1  halAssertHandlerExt                        
000199dd  NOROM_IntDisable                           
00019a45  NOROM_IntEnable                            
00019aa1  Onboard_soft_reset                         
00019aa3  appForceBoot                               
00019aa5  Onboard_rand                               
00019aa5  osal_rand                                  
00019ad7  osal_bm_adjust_header                      
00019aff  osal_bm_alloc                              
00019b31  osal_bm_free                               
00019b7d  osal_memset                                
00019b81  osal_memcpy                                
00019b99  osal_msg_allocate                          
00019bbd  osal_self                                  
00019bc3  osal_msg_deallocate                        
00019bf9  osal_isbufset                              
00019c13  osal_memcmp                                
00019c33  osal_msg_receive                           
00019cbb  osal_revmemcpy                             
00019d69  osal_msg_send                              
00019df1  osal_set_event                             
00019e87  osal_clear_event                           
00019f45  osal_service_entry                         
00019fcf  osal_strlen                                
00019fd3  osal_memdup                                
00019fef  osal_build_uint32                          
0001a021  osal_buffer_uint32                         
0001a05d  HalFlashGetAddress                         
0001a077  HalFlashRead                               
0001a0a3  HalFlashWrite                              
0001a0b5  osal_CbTimerProcessEvent                   
0001a147  osal_CbTimerStop                           
0001a221  osal_CbTimerStart                          
0001a297  osal_snv_read                              
0001a4b5  osal_snv_write                             
0001a5a9  osal_snv_compact                           
0001a661  GAPBondMgr_ResolveAddr                     
0001a803  GAPBondMgr_UpdateCharCfg                   
0001acb9  GAPBondMgr_LinkTerm                        
0001ad0d  GAPBondMgr_ProcessGAPMsg                   
0001aecd  GAPBondMgr_ProcessEvent                    
0001b061  GAPBondMgr_LinkEst                         
0001b129  NOROM_VIMSModeGet                          
0001b13d  NOROM_FlashProgram                         
0001b159  memcmp                                     
0001b17d  NOROM_FlashSectorErase                     
0001b46d  bleDispatch_ProcessEvent                   
0001bde5  bleDispatch_BMAlloc                        
0001be11  bleDispatch_BMFree                         
0001be4d  osal_pwrmgr_task_state                     
0001bebd  ECC_generateKey                            
0001bec9  ECC_ECDH_computeSharedSecret               
0001bedd  osal_mem_alloc                             
0001beff  osal_mem_free                              
0001bf59  strlen                                     
0001bf6d  __TI_zero_init_nomemset                    
0001bf7f  __TI_decompress_none                       
0001bf8d  __TI_decompress_lzss                       
0001bff5  SM_p256KeyCB                               
0001bff7  SM_dhKeyCB                                 
0001c015  GATTServApp_ReadCharCfg                    
0001c025  GATTServApp_InitCharCfg                    
0001c3e8  tasksArr                                   
0001c410  R2F_Flash_JT_CommonROM                     
0001c428  R2F_Flash_JT                               
0001c4d0  R2R_Flash_JT_CommonROM                     
0001c5c4  R2R_Flash_JT                               
0001caf0  txPowerTable                               
0001caf4  txPwrTbl                                   
0001cafc  rfCfgVal                                   
0001cb00  rxPktSuffix                                
0001cb04  advPktSuffix                               
0001cb08  scanPktSuffix                              
0001cb0c  initPktSuffix                              
0001cb10  wlSize                                     
0001cb14  maxPktsPerEvt                              
0001cb18  rfOpLoc                                    
0001cb1c  llConfigTable                              
0001cb4c  ll_buildRevision                           
0001cb50  __TI_Handler_Table_Base                    
0001cb5c  __TI_CINIT_Base                            
0001cb5c  __TI_Handler_Table_Limit                   
0001cb6c  __TI_CINIT_Limit                           
0001e000  NV_FLASH                                   
10005000  A1_rw_1                                    
10005000  __checksum_begin                           
10005001  ROM_BASE_ADDR                              
10005004  P1_ro_1                                    
10005549  LL_TX_bm_alloc                             
1000556d  LL_RX_bm_alloc                             
100056c9  LL_ReadBDADDR                              
100056e9  LL_SetRandomAddress                        
10005719  LL_ClearWhiteList                          
10005739  LL_AddWhiteListDevice                      
10005765  LL_RemoveWhiteListDevice                   
100057a1  LL_ReadWlSize                              
100057b9  LL_NumEmptyWlEntries                       
100057d5  LL_Encrypt                                 
100057f5  LL_Rand                                    
10005801  LL_PseudoRand                              
10005879  LL_ReadLocalSupportedFeatures              
1000589d  LL_ReadLocalVersionInfo                    
100058d5  LL_CtrlToHostFlowControl                   
100058e9  LL_ReadRemoteVersionInfo                   
100059a1  LL_ReadChanMap                             
10005a39  LL_Disconnect                              
10005f89  LL_SetAdvData                              
10006105  LL_ReadAdvChanTxPower                      
1000612d  LL_SetScanRspData                          
1000678d  LL_ConnActive                              
10006ad9  LL_EXT_SetRxGain                           
10006b59  LL_EXT_OnePacketPerEvent                   
10006b7d  LL_EXT_ClkDivOnHalt                        
10006b81  LL_EXT_DeclareNvUsage                      
10006b85  LL_EXT_Decrypt                             
10006bc5  LL_EXT_SetFastTxResponseTime               
10006bdd  LL_EXT_SetSlaveLatencyOverride             
10006e01  LL_EXT_SetBDADDR                           
10006e85  LL_EXT_SetSCA                              
10006ef9  LL_EXT_SetFreqTune                         
10006efd  LL_EXT_SaveFreqTune                        
10006f49  LL_EXT_MapPmIoPort                         
10006f99  LL_EXT_PacketErrorRate                     
10006fed  LL_EXT_PERbyChan                           
1000701d  LL_EXT_ExtendRfRange                       
10007021  LL_EXT_HaltDuringRf                        
10007025  LL_EXT_AdvEventNotice                      
100070a1  LL_EXT_DelaySleep                          
100070d5  LL_EXT_ResetSystem                         
10007109  LL_EXT_OverlappedProcessing                
100072e1  llSetFreqTune                              
100072e5  llDisableRfInts                            
100072e9  llClearRfInts                              
100072ed  llEnableRfInts                             
100072f1  llProcessPostRfOps                         
100073e5  llSetupAdv                                 
100075fd  llSetupScan                                
100077b5  llSetupInit                                
100079c9  llSetupUpdateParamReq                      
10007aed  llSetupEncReq                              
10007b95  llSetupEncRsp                              
10007ca9  llSetupStartEncRsp                         
10007cfd  llSetupPauseEncReq                         
10007d55  llSetupPauseEncRsp                         
10007df5  llSetupRejectInd                           
10007f29  llSetupVersionIndReq                       
10008069  llSetupUnknownRsp                          
100080bd  llEnqueueCtrlPkt                           
100082f1  llAtLeastTwoChans                          
10008429  llReleaseConnId                            
10008461  llReleaseAllConnId                         
10008631  llConnTerminate                            
10008665  llPendingUpdateParam                       
100086b9  llGenerateCRC                              
100086f1  llEventInRange                             
10008719  llEventDelta                               
10008721  llConvertLstoToEvent                       
10008741  llConvertCtrlProcTimeoutToEvent            
10008889  llEnqueueDataQ                             
100088b5  llEnqueueHeadDataQ                         
10008921  llDequeueDataQ                             
10008965  llDataQFull                                
10008985  llDataQEmpty                               
100089d9  llMemCopySrc                               
100089f1  llMemCopyDst                               
10008a2d  HCI_DataBufferOverflowEvent                
10008add  HCI_CommandCompleteEvent                   
10008ba1  HCI_CommandStatusEvent                     
10008c59  HCI_SendCommandStatusEvent                 
10008c81  HCI_SendCommandCompleteEvent               
10008d31  HCI_SendControllerToHostEvent              
10008d81  LL_AdvReportCback                          
10008ead  LL_ConnectionCompleteCback                 
10009005  LL_DisconnectCback                         
100091e1  LL_ReadRemoteVersionInfoCback              
1000925d  LL_EncLtkReqCback                          
1000933d  LL_EncChangeCback                          
100093dd  LL_EncKeyRefreshCback                      
10009471  LL_DirectTestEndDoneCback                  
100094a1  HCI_bm_alloc                               
100094e9  HCI_SendDataPkt                            
10009525  HCI_DisconnectCmd                          
10009541  HCI_ReadRemoteVersionInfoCmd               
10009571  HCI_SetEventMaskCmd                        
100095d1  HCI_ReadTransmitPowerLevelCmd              
100095f5  HCI_SetControllerToHostFlowCtrlCmd         
10009631  HCI_HostBufferSizeCmd                      
1000965d  HCI_HostNumCompletedPktCmd                 
1000973d  HCI_ReadLocalSupportedFeaturesCmd          
10009765  HCI_ReadBDADDRCmd                          
10009829  HCI_LE_ReadLocalSupportedFeaturesCmd       
10009849  HCI_LE_SetRandomAddressCmd                 
1000986d  HCI_LE_SetAdvParamCmd                      
100098a1  HCI_LE_SetAdvDataCmd                       
100098bd  HCI_LE_SetScanRspDataCmd                   
100098d9  HCI_LE_SetAdvEnableCmd                     
100098f5  HCI_LE_ReadAdvChanTxPowerCmd               
10009915  HCI_LE_SetScanParamCmd                     
10009941  HCI_LE_SetScanEnableCmd                    
1000995d  HCI_LE_CreateConnCmd                       
1000999d  HCI_LE_CreateConnCancelCmd                 
100099c9  HCI_LE_ReadWhiteListSizeCmd                
100099f9  HCI_LE_ClearWhiteListCmd                   
10009a15  HCI_LE_AddWhiteListCmd                     
10009a31  HCI_LE_RemoveWhiteListCmd                  
10009a85  HCI_LE_SetHostChanClassificationCmd        
10009aa1  HCI_LE_ReadChannelMapCmd                   
10009af5  HCI_LE_EncryptCmd                          
10009b51  HCI_LE_RandCmd                             
10009ba9  HCI_LE_StartEncyptCmd                      
10009bc5  HCI_LE_LtkReqReplyCmd                      
10009be1  HCI_LE_LtkReqNegReplyCmd                   
10009c15  HCI_LE_ReadSupportedStatesCmd              
10009c8d  HCI_LE_TestEndCmd                          
10009cd5  HCI_EXT_SetRxGainCmd                       
10009d09  HCI_EXT_SetTxPowerCmd                      
10009d45  HCI_EXT_OnePktPerEvtCmd                    
10009d79  HCI_EXT_ClkDivOnHaltCmd                    
10009dad  HCI_EXT_DeclareNvUsageCmd                  
10009dd1  HCI_EXT_DecryptCmd                         
10009e2d  HCI_EXT_SetLocalSupportedFeaturesCmd       
10009e4d  HCI_EXT_SetFastTxResponseTimeCmd           
10009e6d  HCI_EXT_SetSlaveLatencyOverrideCmd         
10009e8d  HCI_EXT_ModemTestTxCmd                     
10009ead  HCI_EXT_ModemHopTestTxCmd                  
10009ecd  HCI_EXT_ModemTestRxCmd                     
10009eed  HCI_EXT_EndModemTestCmd                    
10009f0d  HCI_EXT_SetBDADDRCmd                       
10009f49  HCI_EXT_SetSCACmd                          
10009f69  HCI_EXT_EnablePTMCmd                       
10009f81  HCI_EXT_SetFreqTuneCmd                     
10009fb1  HCI_EXT_SaveFreqTuneCmd                    
10009fd1  HCI_EXT_SetMaxDtmTxPowerCmd                
10009ff1  HCI_EXT_MapPmIoPortCmd                     
1000a011  HCI_EXT_DisconnectImmedCmd                 
1000a031  HCI_EXT_PacketErrorRateCmd                 
1000a075  HCI_EXT_PERbyChanCmd                       
1000a095  HCI_EXT_ExtendRfRangeCmd                   
1000a0d1  HCI_EXT_HaltDuringRfCmd                    
1000a0f1  HCI_EXT_AdvEventNoticeCmd                  
1000a109  HCI_EXT_BuildRevisionCmd                   
1000a195  HCI_EXT_OverlappedProcessingCmd            
1000a1b5  HCI_EXT_NumComplPktsLimitCmd               
1000a1d5  LL_RandCback                               
1000a201  LL_EXT_SetRxGainCback                      
1000a211  LL_EXT_SetTxPowerCback                     
1000a259  LL_EXT_PacketErrorRateCback                
1000a2ad  LL_EXT_ExtendRfRangeCback                  
1000a335  llScheduler                                
1000a895  llFindStartType                            
1000a939  llFindNextSecTask                          
1000abed  llFreeTask                                 
1000ac3d  llGetCurrentTask                           
1000aca9  llGetActiveTasks                           
1000ace1  llGetNumTasks                              
1000adb1  llPatchCM0                                 
1000ae41  llRatChanCBack_B                           
1000ae45  llRatChanCBack_C                           
1000ae49  llRatChanCBack_D                           
1000ae4d  llSetupScanDataEntryQueue                  
1000ae95  llSetupInitDataEntryQueue                  
1000aeb1  llSetupAdvDataEntryQueue                   
1000afa1  llMoveTempTxDataEntries                    
1000b009  llGetNumTxDataEntries                      
1000b4c9  LL_ENC_Init                                
1000b4ed  LL_ENC_ReverseBytes                        
1000b50d  LL_ENC_GeneratePseudoRandNum               
1000b51d  LL_ENC_GenerateTrueRandNum                 
1000b541  LL_ENC_GenDeviceSKD                        
1000b555  LL_ENC_GenDeviceIV                         
1000b569  LL_ENC_GenerateNonce                       
1000b58d  LL_ENC_LoadKey                             
1000b5f5  LL_ENC_AES128_Encrypt                      
1000b639  LL_ENC_AES128_Decrypt                      
1000b721  LL_ENC_EncryptMsg                          
1000b851  LL_ENC_DecryptMsg                          
1000c1b5  llCheckForLstoDuringSL                     
1000cd51  llAdv_TaskAbort                            
1000d189  WL_Init                                    
1000d1f5  WL_ClearEntry                              
1000d229  WL_GetSize                                 
1000d2d9  WL_AddEntry                                
1000d36d  WL_RemoveEntry                             
1000d4ad  llGetAdvChanPDU                            
1000d695  llGenerateValidAccessAddr                  
1000d6b1  llGtSixConsecZerosOrOnes                   
1000d6e5  llEqSynchWord                              
1000d6f5  llOneBitSynchWordDiffer                    
1000d709  llEqualBytes                               
1000d731  llGtTwentyFourTransitions                  
1000d761  llLtTwoChangesInLastSixBits                
1000d795  llEqAlreadyValidAddr                       
1000d7cd  HCI_ReverseBytes                           
1000d8c9  llTimeCompare                              
1000d8f5  llTimeDelta                                
1000d94d  llCalcScaFactor                            
1000d964  SCA                                        
1000d9b0  advChan                                    
1000d9b4  advEvt2Cmd                                 
1000d9c0  advEvt2State                               
1000d9e1  llTaskError                                
1000d9ec  Fill1_1                                    
1000dffc  A3_rw_1                                    
1000dffc  romRev                                     
1000dffd  __checksum_end                             
1000dffe  A2_rw_1                                    
1000dffe  P1_ro_2_1                                  
1000dffe  __checksum                                 
10014c00  A1_rw                                      
10014c00  __checksum_begin_CommonROM                 
10014c01  COMMON_ROM_BASE_ADDR                       
10014c04  P1_ro                                      
10014c05  SCALARMUL_init                             
10014ced  SCALARMUL_core                             
10015019  SCALARMUL_final                            
100150e5  SCALARMUL                                  
10015101  SAVEPOINT                                  
10015141  GETBIT                                     
10015155  GETDIGIT                                   
100151a5  GETDIGITL2R                                
10015215  SelectReg                                  
10015229  ATOMICPATTERN                              
100154f5  JACADD                                     
1001568d  INVERT                                     
10015821  SQUAREMULTIPLYWORD                         
1001588c  LUTOPCODE                                  
10015894  LUTOPSIGN                                  
100158ac  LUTC                                       
100158c4  LUTSE                                      
100158dc  LUTINCI                                    
100158f4  LUTJ                                       
1001596c  LUTSTATE                                   
100159a9  IMPORTLENGTH                               
100159ad  IMPORTMODULUS                              
100159d1  IMPORTOPERAND                              
10015a11  EXPORTOPERAND                              
10015a35  IMPORTDATA                                 
10015a51  SETOPERAND                                 
10015a6d  COPY                                       
10015a85  ZERO                                       
10015a91  SETWORD                                    
10015a9d  mSET                                       
10015bcd  zSET                                       
10015bd5  mINVK                                      
10015d19  zADD                                       
10015d5d  zSUB                                       
10015de9  zMACC32                                    
10015e69  zSUB32                                     
10015eb5  zADD32                                     
10015f0d  zMULT32                                    
10015f81  mMULT                                      
10016551  mADD                                       
1001664d  mSUB                                       
10016749  mOUT                                       
10016975  ssp_KeyInit_Sw                             
10016979  sspAesEncrypt_Sw                           
10016985  sspKeyExpansion_Sw                         
10016a99  sspAesEncryptKeyExp_Sw                     
10016af5  sspAesEncryptBasic_Sw                      
10016b79  RoundKey_Sw                                
10016c29  AddRoundKeySubBytes_Sw                     
10016c45  ShiftRows_Sw                               
10016c79  MixColumns_Sw                              
10016d05  FFMult_Sw                                  
10016d29  sspAesDecrypt_Sw                           
10016da1  InvAddRoundKey_Sw                          
10016dc9  InvRoundKey_Sw                             
10016e8d  InvSubBytes_Sw                             
10016ea1  InvShiftRows_Sw                            
10016ed5  InvMixColumns_Sw                           
10016f58  FFMult2                                    
10017058  FFMult3                                    
10017158  RCon                                       
10017164  Sbox                                       
10017264  InvSbox                                    
10017365  SSP_CCM_Auth_Sw                            
100174fd  SSP_CCM_Encrypt_Sw                         
100175ed  SSP_CTR_Encrypt_Sw                         
1001767d  SSP_CCM_Decrypt_Sw                         
10017771  SSP_CTR_Decrypt_Sw                         
10017839  SSP_CCM_InvAuth_Sw                         
10017895  SSP_CCM_Auth_Encrypt_Sw                    
100178f5  SSP_CCM_InvAuth_Decrypt_Sw                 
10017959  ECC_allocWorkzone                          
10017961  ECC_setWin                                 
10017969  ECDSA_sign                                 
10017b01  ECDSA_verif                                
10017dbd  ECC_keyGen                                 
10017ded  ECDH_commonKey                             
10017e39  SHA256_updateW                             
10017e75  SHA256_round                               
10017ef1  SHA256_nextState                           
10017f49  SHA256_saveBuffer                          
10017ffd  SHA256_init                                
10018019  SHA256_process                             
10018089  SHA256_final                               
10018129  SHA256_full                                
10018315  RFHAL_AllocRatChan                         
1001833d  RFHAL_FreeRatChan                          
10018369  RFHAL_MapRatChansToInt                     
10018391  RFHAL_RegisterRatChanCallback              
100183b9  RFHAL_InitDataQueue                        
100183c5  RFHAL_QueueRFDataEntries                   
10018485  RFHAL_FreeNextTxDataEntry                  
100184a9  RFHAL_AllocDataEntryQueue                  
100184c5  RFHAL_FreeDataEntryQueue                   
100184cd  RFHAL_GetNextDataEntry                     
100184d1  RFHAL_GetTempDataEntry                     
100184d5  RFHAL_NextDataEntryDone                    
100184f9  RFHAL_AllocDataEntry                       
10018549  RFHAL_FreeDataEntry                        
10018551  RFHAL_BuildRingBuffer                      
100185e1  RFHAL_BuildDataEntryRingBuffer             
10018669  RFHAL_BuildLinkedBuffer                    
10018a19  AesCcm_authEncrypt_Sw                      
10018a35  AesCcm_decryptAuth_Sw                      
10018a99  Aes_encrypt_Sw                             
10018ac5  Aes_decrypt_Sw                             
10018b09  AesCcm_getNumBlocks_Sw                     
10018b0c  NIST256_p                                  
10018b30  NIST256_r                                  
10018b54  NIST256_a                                  
10018b78  NIST256_b                                  
10018b9c  NIST256_Gx                                 
10018bc0  NIST256_Gy                                 
10018ced  __exit                                     
10018d6c  Fill1                                      
10019ffc  A3_rw                                      
10019ffd  __checksum_end_CommonROM                   
10019ffe  A2_rw                                      
10019ffe  P1_ro_2                                    
10019ffe  __checksum_CommonROM                       
20004164  pGapDiscReq                                
20004168  pGapAdvertState                            
2000416c  gapState                                   
2000416d  gattNumConns                               
2000416e  gattTaskID                                 
20004170  pfnPeripheralConnCBs                       
20004174  pfnBondMgrCBs                              
2000417c  serverInfoTbl                              
200041a0  GATTServApp_TaskID                         
200041d0  l2capFixedChannels                         
20004200  l2capId                                    
20004204  linkDBNumConns                             
2000423c  localEccKeys                               
20004280  pPairingParams                             
20004284  pfnResponderCBs                            
2000428c  pBleEvtMask                                
20004294  pHciEvtMask2                               
2000429c  hciTaskID                                  
2000429d  hciTestTaskID                              
2000429e  hciGapTaskID                               
2000429f  hciL2capTaskID                             
200042a0  rfEvent                                    
200042a8  hciSmpTaskID                               
200042a9  hciExtTaskID                               
200042b0  bleDispatch_TaskID                         
200042b1  rspBuf                                     
200042ec  timerHead                                  
200042f0  osal_last_timestamp                        
200042f8  ICall_dispatcher                           
200042fc  ICall_enterCriticalSection                 
20004300  ICall_leaveCriticalSection                 
20004304  tasksEvents                                
20004324  gapAppTaskID                               
20004325  gapProfileRole                             
20004326  gapDeviceAddrMode                          
20004327  gapAutoAdvPrivateAddrChange                
20004328  gapPrivateAddrChangeTimeout                
20004388  slaveUpdateReq                             
20004390  slaveConnHandle                            
20004394  pEstLink                                   
20004398  pAuthLink                                  
2000439c  pfnCentralConnCBs                          
200043c0  gapTaskID                                  
200043c1  gapUnwantedTaskID                          
200043c4  pfnPeripheralCBs                           
200043cf  reqTaskId                                  
2000446c  gattAppTaskID                              
2000446d  appTaskID                                  
2000446e  l2capMtuSize                               
20004480  l2capTaskID                                
20004481  l2capNumChannels                           
20004482  l2capNumDataPkts                           
20004484  l2capChannels                              
200044a0  smTaskID                                   
200044a1  SM_appTaskID                               
200044b0  llUserConfig                               
200044d0  maxPduSize                                 
200044d1  rfFeModeBias                               
200044d2  maxNumTxDataBufs                           
200044d4  advInfoExt                                 
200044d8  rfCmdHandle                                
200044dc  eccParams                                  
2000450c  rfHandle                                   
20004510  rfDrvTblPtr                                
20004514  eccDrvTblPtr                               
20004518  llConnectionExt                            
2000451c  trngDrvTblPtr                              
20004520  SysBootMsg                                 
20004524  sclkSrc                                    
20004528  rfMode                                     
20004538  rfParams                                   
2000454c  rfSetup                                    
20004564  cryptoPRAND                                
20004588  rfObject                                   
2000464c  assertSubcause                             
2000464d  legacyMode                                 
20004650  halAssertCback                             
20004655  osal_entity                                
2000465c  osal_qHead                                 
20004660  osal_eventloop_hook                        
20004664  osal_syncHandle                            
20004668  osal_tickperiod                            
2000466c  osal_max_msecs                             
2000467c  baseTaskID                                 
20004680  cbTimers                                   
200046fc  OSAL_timeSeconds                           
20004700  pwrmgr_initialized                         
20004702  pwrmgr_attribute                           
20004719  gapBond_removeLRUBond                      
20004768  gapBond_lruBondList                        
200048e8  A4_rw_1                                    
200048e8  RAM_BASE_ADDR                              
200048fc  P2_zi_1                                    
200048fc  scanDataEntry                              
200049dc  scanDataQueue                              
200049ec  advInfo                                    
20004a8c  wlTable                                    
20004b10  wlTableScan                                
20004b94  initDataEntry                              
20004bcc  initDataQueue                              
20004bdc  advDataEntry                               
20004c14  advDataQueue                               
20004c24  advCmd                                     
20004c6c  ownPublicAddr                              
20004c74  ownRandomAddr                              
20004c7c  ownSavedPublicAddr                         
20004c84  LL_TaskID                                  
20004c85  maxTxPwrForDTM                             
20004c86  onePktPerEvt                               
20004c87  numComplPktsLimit                          
20004c88  numComplPktsFlush                          
20004c89  slOverride                                 
20004c8a  rxFifoFlowCtrl                             
20004c8b  numTxDataBufs                              
20004c8c  verInfo                                    
20004c94  rfCfgAdiVal                                
20004c96  sleepDelay                                 
20004c98  buildInfo                                  
20004c9c  peerInfo                                   
20004ca8  chanMapUpdate                              
20004cb0  llConns                                    
20004cb8  llState                                    
20004cb9  curTxPowerVal                              
20004cba  numComplPkts                               
20004cbb  fastTxRespTime                             
20004cbc  maxNumConns                                
20004cbe  postRfOperations                           
20004cc0  rssiCorrection                             
20004cc4  taskEndAction                              
20004cf0  initParam                                  
20004d14  scanParam                                  
20004d38  slvParam                                   
20004d58  advParam                                   
20004d78  txModemTestCmd                             
20004d94  scanInfo                                   
20004db0  initCmd                                    
20004dc8  connReqData                                
20004de0  slvCmd                                     
20004df8  scanCmd                                    
20004e10  scanOutput                                 
20004e28  trxTestCmd                                 
20004e40  rxModemTestCmd                             
20004e58  initInfo                                   
20004e70  connOutput                                 
20004e84  rxTestParam                                
20004e98  advOutput                                  
20004ea8  txTestParam                                
20004eb8  initOutput                                 
20004ec4  rxTestOut                                  
20004ed0  deviceFeatureSet                           
20004edc  dtmInfo                                    
20004ee8  cachedTRNGdata                             
20004ef4  llTaskList                                 
20004f00  pHciEvtMask                                
20004f08  bleEvtMask                                 
20004f0a  taskEndStatus                              
20004f0c  rxDataQ                                    
20004f10  rxRingBuf                                  
20004f14  mstCmd                                     
20004f18  mstParam                                   
20004f1c  txDataQ                                    
20004f20  txTestOut                                  
20004f24  ctrlToHostEnable                           
20004f26  numHostBufs                                
20004f28  hciPTMenabled                              
20004f2c  A4_rw                                      
20004f2c  COMMON_RAM_BASE_ADDR                       
20004f40  P2_rw                                      
20004f40  P2_s0                                      
20004f40  win                                        
20004f44  workzone                                   
20004f48  data_p                                     
20004f4c  data_r                                     
20004f50  data_a                                     
20004f54  inScalar                                   
20004f58  inPointX                                   
20004f5c  inPointY                                   
20004f60  outPointX                                  
20004f64  outPointY                                  
20004f68  SCAL                                       
20004f6c  EXPX                                       
20004f70  EXPY                                       
20004f74  EXPZ                                       
20004f78  EXPW                                       
20004f7c  ACCX                                       
20004f80  ACCY                                       
20004f84  ACCZ                                       
20004f88  TMP1                                       
20004f8c  TMP2                                       
20004f90  TMP3                                       
20004f94  TMP4                                       
20004f98  TMP5                                       
20004f9c  TMP6                                       
20004fa0  data_Gx                                    
20004fa4  data_Gy                                    
20004fa8  data_b                                     
20004fac  P2_zi                                      
20004fac  ratChanInfo                                
20004fcc  fwInfoCmd                                  
20004fd8  MSBMOD                                     
20004fdc  aux64                                      
20004fe4  MOD                                        
20004fe8  LEN                                        
20004ffc  pSspAesEncrypt_Sw                          
ffffffff  __TI_pprof_out_hndl                        
ffffffff  __TI_prof_data_size                        
ffffffff  __TI_prof_data_start                       
ffffffff  __binit__                                  
ffffffff  __c_args__                                 
ffffffff  binit                                      
UNDEFED   _system_post_cinit                         

[1188 symbols]
